; Listing generated by Microsoft (R) Optimizing Compiler Version 16.00.11886.00 

	TITLE	C:\Users\t3fur\Desktop\Viper Engine 1.4\Trainer\main.cpp
	.PPC
	.MODEL FLAT
PUBLIC	??_C@_0BA@LMBLDOEH@Plotting?5Points?$AA@	; `string'
PUBLIC	?Boot_425307F5@@YAXXZ				; Boot_425307F5
PUBLIC	?Boot_555308b7@@YAXXZ				; Boot_555308b7
PUBLIC	?Boot_4B4E07E5@@YAXXZ				; Boot_4B4E07E5
PUBLIC	?Boot_435907D5@@YAXXZ				; Boot_435907D5
PUBLIC	?Boot_4B4D07F2@@YAXXZ				; Boot_4B4D07F2
PUBLIC	?Boot_445407DE@@YAXXZ				; Boot_445407DE
PUBLIC	?Boot_45410968@@YAXXZ				; Boot_45410968
PUBLIC	?Boot_534307D3@@YAXXZ				; Boot_534307D3
PUBLIC	?Boot_4156081C@@YAXXZ				; Boot_4156081C
PUBLIC	?Boot_415608CB@@YAXXZ				; Boot_415608CB
PUBLIC	?Boot_415607E6@@YAXXZ				; Boot_415607E6
PUBLIC	?Boot_415608FC@@YAXXZ				; Boot_415608FC
PUBLIC	?Boot_58410957@@YAXXZ				; Boot_58410957
PUBLIC	?Boot_415608C3@@YAXXZ				; Boot_415608C3
PUBLIC	?Boot_41560855@@YAXXZ				; Boot_41560855
PUBLIC	?Boot_464507DD@@YAXXZ				; Boot_464507DD
PUBLIC	?Boot_454109E0@@YAXXZ				; Boot_454109E0
PUBLIC	?Boot_584108C3@@YAXXZ				; Boot_584108C3
PUBLIC	?Boot_584107FE@@YAXXZ				; Boot_584107FE
PUBLIC	?Boot_58410807@@YAXXZ				; Boot_58410807
PUBLIC	?Boot_494707D1@@YAXXZ				; Boot_494707D1
PUBLIC	?Boot_58411204@@YAXXZ				; Boot_58411204
PUBLIC	?Boot_58410B22@@YAXXZ				; Boot_58410B22
PUBLIC	?Boot_5345080C@@YAXXZ				; Boot_5345080C
PUBLIC	?Boot_58410964@@YAXXZ				; Boot_58410964
PUBLIC	?Boot_58410AA3@@YAXXZ				; Boot_58410AA3
PUBLIC	?Boot_58410A22@@YAXXZ				; Boot_58410A22
PUBLIC	?Boot_58411233@@YAXXZ				; Boot_58411233
PUBLIC	?Boot_413307D9@@YAXXZ				; Boot_413307D9
PUBLIC	?Boot_58410A06@@YAXXZ				; Boot_58410A06
PUBLIC	?Boot_4E4D07D8@@YAXXZ				; Boot_4E4D07D8
PUBLIC	?Boot_44500807@@YAXXZ				; Boot_44500807
PUBLIC	?Boot_58410886@@YAXXZ				; Boot_58410886
PUBLIC	?Boot_584109DB@@YAXXZ				; Boot_584109DB
PUBLIC	?Boot_584108DB@@YAXXZ				; Boot_584108DB
PUBLIC	?Boot_584109B7@@YAXXZ				; Boot_584109B7
PUBLIC	??_C@_15OIFBPDOF@O?$AAK?$AA?$AA?$AA@		; `string'
PUBLIC	??_C@_1BC@GOAHBJBA@C?$AAo?$AAn?$AAt?$AAi?$AAn?$AAu?$AAe?$AA?$AA?$AA@ ; `string'
PUBLIC	__C2_11886
PUBLIC	?MYPtr2@@3KA					; MYPtr2
PUBLIC	?Run_Statics@@3P6AXXZA				; Run_Statics
PUBLIC	?Quicklaunch1@@3P6AXXZA				; Quicklaunch1
PUBLIC	?MYPtr3@@3KA					; MYPtr3
PUBLIC	?hThreadId@@3KA					; hThreadId
PUBLIC	?random_data@@3PAUpoint_vertex@@A		; random_data
PUBLIC	?hThread@@3PAXA					; hThread
PUBLIC	?g_ettr@@3U_EX_TITLE_TERMINATE_REGISTRATION@@A	; g_ettr
PUBLIC	?state@@3U_XINPUT_STATE@@A			; state
PUBLIC	?MYPtr6@@3KA					; MYPtr6
PUBLIC	?Quicklaunch8@@3P6AXXZA				; Quicklaunch8
PUBLIC	?cavedata@@3PAKA				; cavedata
PUBLIC	?addy3@@3PAKA					; addy3
PUBLIC	?Run_Input@@3P6AXU_MESSAGEBOX_RESULT@@@ZA	; Run_Input
PUBLIC	?addy1@@3PAKA					; addy1
PUBLIC	?XNotifyQueueUI@@3P6AXKKKPA_WK@ZA		; XNotifyQueueUI
PUBLIC	?ConDOHVaddr@@3KA				; ConDOHVaddr
PUBLIC	?g_mb_result@@3U_MESSAGEBOX_RESULT@@A		; g_mb_result
PUBLIC	?Quicklaunch6@@3P6AXXZA				; Quicklaunch6
PUBLIC	?stat@@3U_MEMORYSTATUS@@A			; stat
PUBLIC	?MYPtr4@@3KA					; MYPtr4
PUBLIC	?addy2@@3PAKA					; addy2
PUBLIC	?MemStat@@3U_DM_MEMORY_STATISTICS@@A		; MemStat
PUBLIC	?DmSetMemoryD@@3P6AJPAXKPBXPAK@ZA		; DmSetMemoryD
PUBLIC	?addy4@@3PAKA					; addy4
PUBLIC	?g_titleID@@3IA					; g_titleID
PUBLIC	?Quicklaunch4@@3P6AXXZA				; Quicklaunch4
PUBLIC	?g_pp@@3U_D3DPRESENT_PARAMETERS_@@A		; g_pp
PUBLIC	?Quicklaunch5@@3P6AXXZA				; Quicklaunch5
PUBLIC	?MYPtr1@@3KA					; MYPtr1
PUBLIC	?DmGetMemoryD@@3P6AJPBXKPAXPAK@ZA		; DmGetMemoryD
PUBLIC	?sine_data@@3PAUpoint_vertex@@A			; sine_data
PUBLIC	?Run_Trainer@@3P6AXXZA				; Run_Trainer
PUBLIC	?MYPtr5@@3KA					; MYPtr5
PUBLIC	?info@@3KA					; info
PUBLIC	?Quicklaunch3@@3P6AXXZA				; Quicklaunch3
PUBLIC	?Quicklaunch2@@3P6AXXZA				; Quicklaunch2
PUBLIC	?Quicklaunch7@@3P6AXXZA				; Quicklaunch7
PUBLIC	?XamGetCurrentTitleId@@3P6AIXZA			; XamGetCurrentTitleId
PUBLIC	?g_xol@@3U_XOVERLAPPED@@A			; g_xol
PUBLIC	__C1_11886
PUBLIC	D3DPRIMITIVEVERTEXCOUNT
PUBLIC	D3DTESSPRIMITIVEVERTEXCOUNT
PUBLIC	?g_XMSinCoefficients0@@3UXMVECTORF32@@B		; g_XMSinCoefficients0
PUBLIC	?g_XMSinCoefficients1@@3UXMVECTORF32@@B		; g_XMSinCoefficients1
PUBLIC	?g_XMSinCoefficients2@@3UXMVECTORF32@@B		; g_XMSinCoefficients2
PUBLIC	?g_XMCosCoefficients0@@3UXMVECTORF32@@B		; g_XMCosCoefficients0
PUBLIC	?g_XMCosCoefficients1@@3UXMVECTORF32@@B		; g_XMCosCoefficients1
PUBLIC	?g_XMCosCoefficients2@@3UXMVECTORF32@@B		; g_XMCosCoefficients2
PUBLIC	?g_XMTanCoefficients0@@3UXMVECTORF32@@B		; g_XMTanCoefficients0
PUBLIC	?g_XMTanCoefficients1@@3UXMVECTORF32@@B		; g_XMTanCoefficients1
PUBLIC	?g_XMTanCoefficients2@@3UXMVECTORF32@@B		; g_XMTanCoefficients2
PUBLIC	?g_XMASinCoefficients0@@3UXMVECTORF32@@B	; g_XMASinCoefficients0
PUBLIC	?g_XMASinCoefficients1@@3UXMVECTORF32@@B	; g_XMASinCoefficients1
PUBLIC	?g_XMASinCoefficients2@@3UXMVECTORF32@@B	; g_XMASinCoefficients2
PUBLIC	?g_XMATanCoefficients0@@3UXMVECTORF32@@B	; g_XMATanCoefficients0
PUBLIC	?g_XMATanCoefficients1@@3UXMVECTORF32@@B	; g_XMATanCoefficients1
PUBLIC	?g_XMATanCoefficients2@@3UXMVECTORF32@@B	; g_XMATanCoefficients2
PUBLIC	?g_XMSinEstCoefficients@@3UXMVECTORF32@@B	; g_XMSinEstCoefficients
PUBLIC	?g_XMCosEstCoefficients@@3UXMVECTORF32@@B	; g_XMCosEstCoefficients
PUBLIC	?g_XMTanEstCoefficients@@3UXMVECTORF32@@B	; g_XMTanEstCoefficients
PUBLIC	?g_XMATanEstCoefficients@@3UXMVECTORF32@@B	; g_XMATanEstCoefficients
PUBLIC	?g_XMASinEstCoefficients@@3UXMVECTORF32@@B	; g_XMASinEstCoefficients
PUBLIC	?g_XMASinEstConstants@@3UXMVECTORF32@@B		; g_XMASinEstConstants
PUBLIC	?g_XMPiConstants0@@3UXMVECTORF32@@B		; g_XMPiConstants0
PUBLIC	?g_XMIdentityR0@@3UXMVECTORF32@@B		; g_XMIdentityR0
PUBLIC	?g_XMIdentityR1@@3UXMVECTORF32@@B		; g_XMIdentityR1
PUBLIC	?g_XMIdentityR2@@3UXMVECTORF32@@B		; g_XMIdentityR2
PUBLIC	?g_XMIdentityR3@@3UXMVECTORF32@@B		; g_XMIdentityR3
PUBLIC	?g_XMNegIdentityR0@@3UXMVECTORF32@@B		; g_XMNegIdentityR0
PUBLIC	?g_XMNegIdentityR1@@3UXMVECTORF32@@B		; g_XMNegIdentityR1
PUBLIC	?g_XMNegIdentityR2@@3UXMVECTORF32@@B		; g_XMNegIdentityR2
PUBLIC	?g_XMNegIdentityR3@@3UXMVECTORF32@@B		; g_XMNegIdentityR3
PUBLIC	?g_XMNegativeZero@@3UXMVECTORI32@@B		; g_XMNegativeZero
PUBLIC	?g_XMNegate3@@3UXMVECTORI32@@B			; g_XMNegate3
PUBLIC	?g_XMMask3@@3UXMVECTORI32@@B			; g_XMMask3
PUBLIC	?g_XMMaskX@@3UXMVECTORI32@@B			; g_XMMaskX
PUBLIC	?g_XMMaskY@@3UXMVECTORI32@@B			; g_XMMaskY
PUBLIC	?g_XMMaskZ@@3UXMVECTORI32@@B			; g_XMMaskZ
PUBLIC	?g_XMMaskW@@3UXMVECTORI32@@B			; g_XMMaskW
PUBLIC	?g_XMOne@@3UXMVECTORF32@@B			; g_XMOne
PUBLIC	?g_XMOne3@@3UXMVECTORF32@@B			; g_XMOne3
PUBLIC	?g_XMZero@@3UXMVECTORF32@@B			; g_XMZero
PUBLIC	?g_XMNegativeOne@@3UXMVECTORF32@@B		; g_XMNegativeOne
PUBLIC	?g_XMOneHalf@@3UXMVECTORF32@@B			; g_XMOneHalf
PUBLIC	?g_XMNegativeOneHalf@@3UXMVECTORF32@@B		; g_XMNegativeOneHalf
PUBLIC	?g_XMNegativeTwoPi@@3UXMVECTORF32@@B		; g_XMNegativeTwoPi
PUBLIC	?g_XMNegativePi@@3UXMVECTORF32@@B		; g_XMNegativePi
PUBLIC	?g_XMHalfPi@@3UXMVECTORF32@@B			; g_XMHalfPi
PUBLIC	?g_XMPi@@3UXMVECTORF32@@B			; g_XMPi
PUBLIC	?g_XMReciprocalPi@@3UXMVECTORF32@@B		; g_XMReciprocalPi
PUBLIC	?g_XMTwoPi@@3UXMVECTORF32@@B			; g_XMTwoPi
PUBLIC	?g_XMReciprocalTwoPi@@3UXMVECTORF32@@B		; g_XMReciprocalTwoPi
PUBLIC	?g_XMEpsilon@@3UXMVECTORF32@@B			; g_XMEpsilon
PUBLIC	?g_XMInfinity@@3UXMVECTORI32@@B			; g_XMInfinity
PUBLIC	?g_XMQNaN@@3UXMVECTORI32@@B			; g_XMQNaN
PUBLIC	?g_XMQNaNTest@@3UXMVECTORI32@@B			; g_XMQNaNTest
PUBLIC	?g_XMAbsMask@@3UXMVECTORI32@@B			; g_XMAbsMask
PUBLIC	?g_XMFltMin@@3UXMVECTORI32@@B			; g_XMFltMin
PUBLIC	?g_XMFltMax@@3UXMVECTORI32@@B			; g_XMFltMax
PUBLIC	?g_XMNegOneMask@@3UXMVECTORI32@@B		; g_XMNegOneMask
PUBLIC	?g_XMMaskA8R8G8B8@@3UXMVECTORI32@@B		; g_XMMaskA8R8G8B8
PUBLIC	?g_XMFlipA8R8G8B8@@3UXMVECTORI32@@B		; g_XMFlipA8R8G8B8
PUBLIC	?g_XMFixAA8R8G8B8@@3UXMVECTORF32@@B		; g_XMFixAA8R8G8B8
PUBLIC	?g_XMNormalizeA8R8G8B8@@3UXMVECTORF32@@B	; g_XMNormalizeA8R8G8B8
PUBLIC	?g_XMMaskA2B10G10R10@@3UXMVECTORI32@@B		; g_XMMaskA2B10G10R10
PUBLIC	?g_XMFlipA2B10G10R10@@3UXMVECTORI32@@B		; g_XMFlipA2B10G10R10
PUBLIC	?g_XMFixAA2B10G10R10@@3UXMVECTORF32@@B		; g_XMFixAA2B10G10R10
PUBLIC	?g_XMNormalizeA2B10G10R10@@3UXMVECTORF32@@B	; g_XMNormalizeA2B10G10R10
PUBLIC	?g_XMMaskX16Y16@@3UXMVECTORI32@@B		; g_XMMaskX16Y16
PUBLIC	?g_XMFlipX16Y16@@3UXMVECTORI32@@B		; g_XMFlipX16Y16
PUBLIC	?g_XMFixX16Y16@@3UXMVECTORF32@@B		; g_XMFixX16Y16
PUBLIC	?g_XMNormalizeX16Y16@@3UXMVECTORF32@@B		; g_XMNormalizeX16Y16
PUBLIC	?g_XMMaskX16Y16Z16W16@@3UXMVECTORI32@@B		; g_XMMaskX16Y16Z16W16
PUBLIC	?g_XMFlipX16Y16Z16W16@@3UXMVECTORI32@@B		; g_XMFlipX16Y16Z16W16
PUBLIC	?g_XMFixX16Y16Z16W16@@3UXMVECTORF32@@B		; g_XMFixX16Y16Z16W16
PUBLIC	?g_XMNormalizeX16Y16Z16W16@@3UXMVECTORF32@@B	; g_XMNormalizeX16Y16Z16W16
PUBLIC	?g_XMNoFraction@@3UXMVECTORF32@@B		; g_XMNoFraction
PUBLIC	?g_XMMaskByte@@3UXMVECTORI32@@B			; g_XMMaskByte
PUBLIC	?g_XMNegateX@@3UXMVECTORF32@@B			; g_XMNegateX
PUBLIC	?g_XMNegateY@@3UXMVECTORF32@@B			; g_XMNegateY
PUBLIC	?g_XMNegateZ@@3UXMVECTORF32@@B			; g_XMNegateZ
PUBLIC	?g_XMNegateW@@3UXMVECTORF32@@B			; g_XMNegateW
PUBLIC	?g_XMSelect0101@@3UXMVECTORI32@@B		; g_XMSelect0101
PUBLIC	?g_XMSelect1010@@3UXMVECTORI32@@B		; g_XMSelect1010
PUBLIC	?g_XMOneHalfMinusEpsilon@@3UXMVECTORI32@@B	; g_XMOneHalfMinusEpsilon
PUBLIC	?g_XMSelect1000@@3UXMVECTORI32@@B		; g_XMSelect1000
PUBLIC	?g_XMSelect1100@@3UXMVECTORI32@@B		; g_XMSelect1100
PUBLIC	?g_XMSelect1110@@3UXMVECTORI32@@B		; g_XMSelect1110
PUBLIC	?g_XMSwizzleXYXY@@3UXMVECTORI32@@B		; g_XMSwizzleXYXY
PUBLIC	?g_XMSwizzleXYZX@@3UXMVECTORI32@@B		; g_XMSwizzleXYZX
PUBLIC	?g_XMSwizzleYXZW@@3UXMVECTORI32@@B		; g_XMSwizzleYXZW
PUBLIC	?g_XMSwizzleYZXW@@3UXMVECTORI32@@B		; g_XMSwizzleYZXW
PUBLIC	?g_XMSwizzleZXYW@@3UXMVECTORI32@@B		; g_XMSwizzleZXYW
PUBLIC	?g_XMPermute0X0Y1X1Y@@3UXMVECTORI32@@B		; g_XMPermute0X0Y1X1Y
PUBLIC	?g_XMPermute0Z0W1Z1W@@3UXMVECTORI32@@B		; g_XMPermute0Z0W1Z1W
PUBLIC	?g_XMFixupY16@@3UXMVECTORF32@@B			; g_XMFixupY16
PUBLIC	?g_XMFixupY16W16@@3UXMVECTORF32@@B		; g_XMFixupY16W16
PUBLIC	?g_XMFlipY@@3UXMVECTORI32@@B			; g_XMFlipY
PUBLIC	?g_XMFlipZ@@3UXMVECTORI32@@B			; g_XMFlipZ
PUBLIC	?g_XMFlipW@@3UXMVECTORI32@@B			; g_XMFlipW
PUBLIC	?g_XMFlipYZ@@3UXMVECTORI32@@B			; g_XMFlipYZ
PUBLIC	?g_XMFlipZW@@3UXMVECTORI32@@B			; g_XMFlipZW
PUBLIC	?g_XMFlipYW@@3UXMVECTORI32@@B			; g_XMFlipYW
PUBLIC	?g_XMMaskHenD3@@3UXMVECTORI32@@B		; g_XMMaskHenD3
PUBLIC	?g_XMMaskDHen3@@3UXMVECTORI32@@B		; g_XMMaskDHen3
PUBLIC	?g_XMAddUHenD3@@3UXMVECTORF32@@B		; g_XMAddUHenD3
PUBLIC	?g_XMAddHenD3@@3UXMVECTORF32@@B			; g_XMAddHenD3
PUBLIC	?g_XMAddDHen3@@3UXMVECTORF32@@B			; g_XMAddDHen3
PUBLIC	?g_XMMulHenD3@@3UXMVECTORF32@@B			; g_XMMulHenD3
PUBLIC	?g_XMMulDHen3@@3UXMVECTORF32@@B			; g_XMMulDHen3
PUBLIC	?g_XMXorHenD3@@3UXMVECTORI32@@B			; g_XMXorHenD3
PUBLIC	?g_XMXorDHen3@@3UXMVECTORI32@@B			; g_XMXorDHen3
PUBLIC	?g_XMMaskIco4@@3UXMVECTORI32@@B			; g_XMMaskIco4
PUBLIC	?g_XMXorXIco4@@3UXMVECTORI32@@B			; g_XMXorXIco4
PUBLIC	?g_XMXorIco4@@3UXMVECTORI32@@B			; g_XMXorIco4
PUBLIC	?g_XMAddXIco4@@3UXMVECTORF32@@B			; g_XMAddXIco4
PUBLIC	?g_XMAddUIco4@@3UXMVECTORF32@@B			; g_XMAddUIco4
PUBLIC	?g_XMAddIco4@@3UXMVECTORF32@@B			; g_XMAddIco4
PUBLIC	?g_XMMulIco4@@3UXMVECTORF32@@B			; g_XMMulIco4
PUBLIC	?g_XMMaskDec4@@3UXMVECTORI32@@B			; g_XMMaskDec4
PUBLIC	?g_XMXorDec4@@3UXMVECTORI32@@B			; g_XMXorDec4
PUBLIC	?g_XMAddUDec4@@3UXMVECTORF32@@B			; g_XMAddUDec4
PUBLIC	?g_XMAddDec4@@3UXMVECTORF32@@B			; g_XMAddDec4
PUBLIC	?g_XMMulDec4@@3UXMVECTORF32@@B			; g_XMMulDec4
PUBLIC	?g_XMMaskByte4@@3UXMVECTORI32@@B		; g_XMMaskByte4
PUBLIC	?g_XMXorByte4@@3UXMVECTORI32@@B			; g_XMXorByte4
PUBLIC	?g_XMAddByte4@@3UXMVECTORF32@@B			; g_XMAddByte4
PUBLIC	?g_XMFixUnsigned@@3UXMVECTORF32@@B		; g_XMFixUnsigned
PUBLIC	?g_XMMaxInt@@3UXMVECTORF32@@B			; g_XMMaxInt
PUBLIC	?g_XMMaxUInt@@3UXMVECTORF32@@B			; g_XMMaxUInt
PUBLIC	?g_XMUnsignedFix@@3UXMVECTORF32@@B		; g_XMUnsignedFix
PUBLIC	?staticcode@@3KA				; staticcode
PUBLIC	?functstatic@@3_NA				; functstatic
PUBLIC	?InfMoney@@3_NA					; InfMoney
PUBLIC	?InfTimer@@3_NA					; InfTimer
PUBLIC	?Dymbool@@3_NA					; Dymbool
PUBLIC	?ALLCheats@@3_NA				; ALLCheats
PUBLIC	?AllCheats@@3_NA				; AllCheats
PUBLIC	?ALLCheats1@@3_NA				; ALLCheats1
PUBLIC	?ALLCheats2@@3_NA				; ALLCheats2
PUBLIC	?InfHealthZOM@@3_NA				; InfHealthZOM
PUBLIC	?InfHealth@@3_NA				; InfHealth
PUBLIC	?OneHitKo@@3_NA					; OneHitKo
PUBLIC	?InfAmmoZom@@3_NA				; InfAmmoZom
PUBLIC	?InfAmmo@@3_NA					; InfAmmo
PUBLIC	?InfSpecial@@3_NA				; InfSpecial
PUBLIC	?InfStamina@@3_NA				; InfStamina
PUBLIC	?InfGrenade@@3_NA				; InfGrenade
PUBLIC	?NOAmmo@@3_NA					; NOAmmo
PUBLIC	?killstreaks@@3_NA				; killstreaks
PUBLIC	?HooksSet@@3_NA					; HooksSet
PUBLIC	?SetAddr@@3_NA					; SetAddr
PUBLIC	?Setstatics@@3_NA				; Setstatics
PUBLIC	?maxcashzm@@3_NA				; maxcashzm
PUBLIC	?InfScore@@3_NA					; InfScore
PUBLIC	?Max_Cash@@3_NA					; Max_Cash
PUBLIC	?Max_XP@@3_NA					; Max_XP
PUBLIC	?InfLight@@3_NA					; InfLight
PUBLIC	?InfRage@@3_NA					; InfRage
PUBLIC	?InfItems@@3_NA					; InfItems
PUBLIC	?InfGold@@3_NA					; InfGold
PUBLIC	?MaxCash@@3_NA					; MaxCash
PUBLIC	?NoWeight@@3_NA					; NoWeight
PUBLIC	?StaticRoutine@@3_NA				; StaticRoutine
PUBLIC	?Unbreakable@@3_NA				; Unbreakable
PUBLIC	?NOPThis@@3KA					; NOPThis
PUBLIC	?Max_IT@@3KA					; Max_IT
PUBLIC	?Li_r11_Max@@3KA				; Li_r11_Max
PUBLIC	?Li_r11_999@@3KA				; Li_r11_999
PUBLIC	?Li_r11_99@@3KA					; Li_r11_99
PUBLIC	?Addi_r11_FFFF@@3KA				; Addi_r11_FFFF
PUBLIC	?Addi_r11_nil@@3KA				; Addi_r11_nil
PUBLIC	?Addi_r11_1@@3KA				; Addi_r11_1
PUBLIC	?Null_It@@3KA					; Null_It
PUBLIC	?AIAmmo@@3_NA					; AIAmmo
PUBLIC	?InfBP@@3_NA					; InfBP
PUBLIC	?TU@@3_NA					; TU
PUBLIC	?CheatXX@@3_NA					; CheatXX
PUBLIC	?CheatLB@@3_NA					; CheatLB
PUBLIC	?CheatYY@@3_NA					; CheatYY
PUBLIC	?CheatRB@@3_NA					; CheatRB
PUBLIC	?CheatRT@@3_NA					; CheatRT
PUBLIC	?CheatLT@@3_NA					; CheatLT
PUBLIC	?CheatDU@@3_NA					; CheatDU
PUBLIC	?CheatDL@@3_NA					; CheatDL
PUBLIC	?CheatDR@@3_NA					; CheatDR
PUBLIC	?CheckGame@@3_NA				; CheckGame
PUBLIC	?CheckGame2@@3_NA				; CheckGame2
PUBLIC	?GameReady@@3_NA				; GameReady
PUBLIC	?gcheck@@3PAEA					; gcheck
PUBLIC	?gcheck2@@3PAEA					; gcheck2
PUBLIC	?gchecktu@@3PAEA				; gchecktu
PUBLIC	?gchecktu2@@3PAEA				; gchecktu2
PUBLIC	?nop@@3PAEA					; nop
PUBLIC	?nopnano@@3PAEA					; nopnano
PUBLIC	?nopnades@@3PAEA				; nopnades
PUBLIC	?nopammo@@3PAEA					; nopammo
PUBLIC	?nophealth@@3PAEA				; nophealth
PUBLIC	?nopnv@@3PAEA					; nopnv
PUBLIC	?nano@@3PAEA					; nano
PUBLIC	?XpMode@@3PAEA					; XpMode
PUBLIC	?ammo@@3PAEA					; ammo
PUBLIC	?health@@3PAEA					; health
PUBLIC	?healthact@@3PAEA				; healthact
PUBLIC	?nades@@3PAEA					; nades
PUBLIC	?nv@@3PAEA					; nv
PUBLIC	?BootInfo@@3KA					; BootInfo
PUBLIC	?hTh01@@3PAXA					; hTh01
PUBLIC	?hThId01@@3KA					; hThId01
PUBLIC	?g_strButtons@@3PAPB_WA				; g_strButtons
PUBLIC	?Prompt@@3KA					; Prompt
PUBLIC	?KrnlType@@3KA					; KrnlType
PUBLIC	?btnOk@@3PAPB_WA				; btnOk
PUBLIC	?AotGbuf@@3PAKA					; AotGbuf
PUBLIC	?AotGbuf1@@3PAKA				; AotGbuf1
PUBLIC	?Timer1_addr@@3KA				; Timer1_addr
PUBLIC	?Timer2_addr@@3KA				; Timer2_addr
PUBLIC	?AfBCbuf@@3PAKA					; AfBCbuf
PUBLIC	?AfBCAmmo@@3PAKA				; AfBCAmmo
PUBLIC	?AConVbuf@@3PAKA				; AConVbuf
PUBLIC	?AConVbufAmmo@@3PAKA				; AConVbufAmmo
PUBLIC	?AConVbufGren@@3PAKA				; AConVbufGren
PUBLIC	?AConVbufAfter@@3PAKA				; AConVbufAfter
PUBLIC	?AlienBassbuf@@3PAKA				; AlienBassbuf
PUBLIC	?AlienBassbufAmmo@@3PAKA			; AlienBassbufAmmo
PUBLIC	?AlienBassbufItem@@3PAKA			; AlienBassbufItem
PUBLIC	?AlienBdecbuf@@3PAKA				; AlienBdecbuf
PUBLIC	?AlienBdecbufAmmo@@3PAKA			; AlienBdecbufAmmo
PUBLIC	?AlienBdecbufItem@@3PAKA			; AlienBdecbufItem
PUBLIC	?AlienBevobuf@@3PAKA				; AlienBevobuf
PUBLIC	?AlienBevobufAmmo@@3PAKA			; AlienBevobufAmmo
PUBLIC	?AlienBevobufItem@@3PAKA			; AlienBevobufItem
PUBLIC	?AlienBevoXPValue@@3KA				; AlienBevoXPValue
PUBLIC	?addr_ammoACM@@3KA				; addr_ammoACM
PUBLIC	?Ammo_OnACM@@3KA				; Ammo_OnACM
PUBLIC	?Ammo_offACM@@3KA				; Ammo_offACM
PUBLIC	?AlienCMXValue@@3MA				; AlienCMXValue
PUBLIC	?AlienRbuf@@3PAKA				; AlienRbuf
PUBLIC	?AlienRbufAmmo@@3PAKA				; AlienRbufAmmo
PUBLIC	?AlienRbufItem@@3PAKA				; AlienRbufItem
PUBLIC	?addr_ammoAitd@@3KA				; addr_ammoAitd
PUBLIC	?Timer1_addrAitd@@3KA				; Timer1_addrAitd
PUBLIC	?Timer2_addrAitd@@3KA				; Timer2_addrAitd
PUBLIC	?Arkadianbuf@@3PAKA				; Arkadianbuf
PUBLIC	?ArkadianTimerbuf@@3PAKA			; ArkadianTimerbuf
PUBLIC	?Arkadianxpbuf@@3PAKA				; Arkadianxpbuf
PUBLIC	?Arkadianammobuf@@3PAKA				; Arkadianammobuf
PUBLIC	?Arkadianweabuf@@3PAKA				; Arkadianweabuf
PUBLIC	?Arkadianabilbuf@@3PAKA				; Arkadianabilbuf
PUBLIC	?AssaultHbuf@@3PAKA				; AssaultHbuf
PUBLIC	?AssaultHNukebuf@@3PAKA				; AssaultHNukebuf
PUBLIC	?AssaultHSkillbuf@@3PAKA			; AssaultHSkillbuf
PUBLIC	?AssaultHGrenbuf@@3PAKA				; AssaultHGrenbuf
PUBLIC	?AssaultH2buf@@3PAKA				; AssaultH2buf
PUBLIC	?AssaultH2Nukebuf@@3PAKA			; AssaultH2Nukebuf
PUBLIC	?AssaultH2Skillbuf@@3PAKA			; AssaultH2Skillbuf
PUBLIC	?AssaultH2Grenbuf@@3PAKA			; AssaultH2Grenbuf
PUBLIC	?BFHLbuf@@3PAKA					; BFHLbuf
PUBLIC	?BFHLbufAmmo@@3PAKA				; BFHLbufAmmo
PUBLIC	?BFHLbufstam@@3PAKA				; BFHLbufstam
PUBLIC	?BFHLbufspec@@3PAKA				; BFHLbufspec
PUBLIC	?Weaponselect@@3KA				; Weaponselect
PUBLIC	?pokeShealth@@3KA				; pokeShealth
PUBLIC	?addr_ammo1@@3KA				; addr_ammo1
PUBLIC	?Ammo_On@@3KA					; Ammo_On
PUBLIC	?Ammo_off@@3KA					; Ammo_off
PUBLIC	?XValue@@3MA					; XValue
PUBLIC	?XPValue@@3MA					; XPValue
PUBLIC	?ZValue@@3MA					; ZValue
PUBLIC	?CODCHealthbuf@@3PAKA				; CODCHealthbuf
PUBLIC	?CODCAmmobuf@@3PAKA				; CODCAmmobuf
PUBLIC	?CODMWAmmobuf@@3PAKA				; CODMWAmmobuf
PUBLIC	?CODMW3Ammobuf@@3PAKA				; CODMW3Ammobuf
PUBLIC	?CODGAmmobuf@@3PAKA				; CODGAmmobuf
PUBLIC	?ConDOaddr_ammo1@@3KA				; ConDOaddr_ammo1
PUBLIC	?ConDOHVbuf@@3PAKA				; ConDOHVbuf
PUBLIC	?ConDOGrenbuf@@3PAKA				; ConDOGrenbuf
PUBLIC	?ConDOammobuf@@3PAKA				; ConDOammobuf
PUBLIC	?crysisbuf@@3PAKA				; crysisbuf
PUBLIC	?crysisbufSpecial@@3PAKA			; crysisbufSpecial
PUBLIC	?crysisbufAmmo@@3PAKA				; crysisbufAmmo
PUBLIC	?crysisbufGren@@3PAKA				; crysisbufGren
PUBLIC	?crysisbufNano@@3PAKA				; crysisbufNano
PUBLIC	?CursedCXValue@@3MA				; CursedCXValue
PUBLIC	?EFbuf@@3PAKA					; EFbuf
PUBLIC	?EFAmmobuf@@3PAKA				; EFAmmobuf
PUBLIC	?EFstambuf@@3PAKA				; EFstambuf
PUBLIC	?EFGrenbuf@@3PAKA				; EFGrenbuf
PUBLIC	?addr_ammoSHHC@@3KA				; addr_ammoSHHC
PUBLIC	?Ammo_OnSHHC@@3KA				; Ammo_OnSHHC
PUBLIC	?Ammo_offSHHC@@3KA				; Ammo_offSHHC
PUBLIC	?SHHCXValue@@3MA				; SHHCXValue
PUBLIC	?SHHCZValue@@3MA				; SHHCZValue
PUBLIC	?CashValue@@3KA					; CashValue
PUBLIC	?WDXValue@@3MA					; WDXValue
PUBLIC	?firstrun@@3_NA					; firstrun
PUBLIC	?g_app_name@@3PBDB				; g_app_name
PUBLIC	?g_app_done@@3_NA				; g_app_done
PUBLIC	?g_d3d_device@@3PAUD3DDevice@@A			; g_d3d_device
PUBLIC	?random_mode@@3_NA				; random_mode
PUBLIC	?dwPlayerIndex@@3KA				; dwPlayerIndex
PUBLIC	?g_killThread@@3HA				; g_killThread
PUBLIC	szModuleName
	.bss
?MYPtr2@@3KA DD	01H DUP (?)				; MYPtr2
?Run_Statics@@3P6AXXZA DD 01H DUP (?)			; Run_Statics
?Quicklaunch1@@3P6AXXZA DD 01H DUP (?)			; Quicklaunch1
?MYPtr3@@3KA DD	01H DUP (?)				; MYPtr3
?hThreadId@@3KA DD 01H DUP (?)				; hThreadId
?random_data@@3PAUpoint_vertex@@A DB 03200H DUP (?)	; random_data
?hThread@@3PAXA DD 01H DUP (?)				; hThread
?g_ettr@@3U_EX_TITLE_TERMINATE_REGISTRATION@@A DB 010H DUP (?) ; g_ettr
?state@@3U_XINPUT_STATE@@A DB 010H DUP (?)		; state
?MYPtr6@@3KA DD	01H DUP (?)				; MYPtr6
?Quicklaunch8@@3P6AXXZA DD 01H DUP (?)			; Quicklaunch8
?cavedata@@3PAKA DD 04H DUP (?)				; cavedata
?addy3@@3PAKA DD 01H DUP (?)				; addy3
?Run_Input@@3P6AXU_MESSAGEBOX_RESULT@@@ZA DD 01H DUP (?) ; Run_Input
?addy1@@3PAKA DD 01H DUP (?)				; addy1
?XNotifyQueueUI@@3P6AXKKKPA_WK@ZA DD 01H DUP (?)	; XNotifyQueueUI
?ConDOHVaddr@@3KA DD 01H DUP (?)			; ConDOHVaddr
	ALIGN	8

?g_mb_result@@3U_MESSAGEBOX_RESULT@@A DQ 01H DUP (?)	; g_mb_result
?Quicklaunch6@@3P6AXXZA DD 01H DUP (?)			; Quicklaunch6
?stat@@3U_MEMORYSTATUS@@A DB 020H DUP (?)		; stat
?MYPtr4@@3KA DD	01H DUP (?)				; MYPtr4
?addy2@@3PAKA DD 01H DUP (?)				; addy2
?MemStat@@3U_DM_MEMORY_STATISTICS@@A DB 030H DUP (?)	; MemStat
?DmSetMemoryD@@3P6AJPAXKPBXPAK@ZA DD 01H DUP (?)	; DmSetMemoryD
?addy4@@3PAKA DD 01H DUP (?)				; addy4
?g_titleID@@3IA DD 01H DUP (?)				; g_titleID
?Quicklaunch4@@3P6AXXZA DD 01H DUP (?)			; Quicklaunch4
?g_pp@@3U_D3DPRESENT_PARAMETERS_@@A DB 07cH DUP (?)	; g_pp
?Quicklaunch5@@3P6AXXZA DD 01H DUP (?)			; Quicklaunch5
?MYPtr1@@3KA DD	01H DUP (?)				; MYPtr1
?DmGetMemoryD@@3P6AJPBXKPAXPAK@ZA DD 01H DUP (?)	; DmGetMemoryD
?sine_data@@3PAUpoint_vertex@@A DB 03200H DUP (?)	; sine_data
?Run_Trainer@@3P6AXXZA DD 01H DUP (?)			; Run_Trainer
?MYPtr5@@3KA DD	01H DUP (?)				; MYPtr5
?info@@3KA DD	01H DUP (?)				; info
?Quicklaunch3@@3P6AXXZA DD 01H DUP (?)			; Quicklaunch3
?Quicklaunch2@@3P6AXXZA DD 01H DUP (?)			; Quicklaunch2
?Quicklaunch7@@3P6AXXZA DD 01H DUP (?)			; Quicklaunch7
?XamGetCurrentTitleId@@3P6AIXZA DD 01H DUP (?)		; XamGetCurrentTitleId
?g_xol@@3U_XOVERLAPPED@@A DB 01cH DUP (?)		; g_xol
?staticcode@@3KA DD 01H DUP (?)				; staticcode
?functstatic@@3_NA DB 01H DUP (?)			; functstatic
	ALIGN	4

?InfMoney@@3_NA DB 01H DUP (?)				; InfMoney
	ALIGN	4

?InfTimer@@3_NA DB 01H DUP (?)				; InfTimer
	ALIGN	4

?Dymbool@@3_NA DB 01H DUP (?)				; Dymbool
	ALIGN	4

?ALLCheats@@3_NA DB 01H DUP (?)				; ALLCheats
	ALIGN	4

?AllCheats@@3_NA DB 01H DUP (?)				; AllCheats
	ALIGN	4

?ALLCheats1@@3_NA DB 01H DUP (?)			; ALLCheats1
	ALIGN	4

?ALLCheats2@@3_NA DB 01H DUP (?)			; ALLCheats2
	ALIGN	4

?InfHealthZOM@@3_NA DB 01H DUP (?)			; InfHealthZOM
	ALIGN	4

?InfHealth@@3_NA DB 01H DUP (?)				; InfHealth
	ALIGN	4

?OneHitKo@@3_NA DB 01H DUP (?)				; OneHitKo
	ALIGN	4

?InfAmmoZom@@3_NA DB 01H DUP (?)			; InfAmmoZom
	ALIGN	4

?InfAmmo@@3_NA DB 01H DUP (?)				; InfAmmo
	ALIGN	4

?InfSpecial@@3_NA DB 01H DUP (?)			; InfSpecial
	ALIGN	4

?InfStamina@@3_NA DB 01H DUP (?)			; InfStamina
	ALIGN	4

?InfGrenade@@3_NA DB 01H DUP (?)			; InfGrenade
	ALIGN	4

?NOAmmo@@3_NA DB 01H DUP (?)				; NOAmmo
	ALIGN	4

?killstreaks@@3_NA DB 01H DUP (?)			; killstreaks
	ALIGN	4

?HooksSet@@3_NA DB 01H DUP (?)				; HooksSet
	ALIGN	4

?SetAddr@@3_NA DB 01H DUP (?)				; SetAddr
	ALIGN	4

?Setstatics@@3_NA DB 01H DUP (?)			; Setstatics
	ALIGN	4

?maxcashzm@@3_NA DB 01H DUP (?)				; maxcashzm
	ALIGN	4

?InfScore@@3_NA DB 01H DUP (?)				; InfScore
	ALIGN	4

?Max_Cash@@3_NA DB 01H DUP (?)				; Max_Cash
	ALIGN	4

?Max_XP@@3_NA DB 01H DUP (?)				; Max_XP
	ALIGN	4

?InfLight@@3_NA DB 01H DUP (?)				; InfLight
	ALIGN	4

?InfRage@@3_NA DB 01H DUP (?)				; InfRage
	ALIGN	4

?InfItems@@3_NA DB 01H DUP (?)				; InfItems
	ALIGN	4

?InfGold@@3_NA DB 01H DUP (?)				; InfGold
	ALIGN	4

?MaxCash@@3_NA DB 01H DUP (?)				; MaxCash
	ALIGN	4

?NoWeight@@3_NA DB 01H DUP (?)				; NoWeight
	ALIGN	4

?StaticRoutine@@3_NA DB 01H DUP (?)			; StaticRoutine
	ALIGN	4

?Unbreakable@@3_NA DB 01H DUP (?)			; Unbreakable
	ALIGN	4

?Null_It@@3KA DD 01H DUP (?)				; Null_It
?AIAmmo@@3_NA DB 01H DUP (?)				; AIAmmo
	ALIGN	4

?InfBP@@3_NA DB	01H DUP (?)				; InfBP
	ALIGN	4

?TU@@3_NA DB	01H DUP (?)				; TU
	ALIGN	4

?CheatXX@@3_NA DB 01H DUP (?)				; CheatXX
	ALIGN	4

?CheatLB@@3_NA DB 01H DUP (?)				; CheatLB
	ALIGN	4

?CheatYY@@3_NA DB 01H DUP (?)				; CheatYY
	ALIGN	4

?CheatRB@@3_NA DB 01H DUP (?)				; CheatRB
	ALIGN	4

?CheatRT@@3_NA DB 01H DUP (?)				; CheatRT
	ALIGN	4

?CheatLT@@3_NA DB 01H DUP (?)				; CheatLT
	ALIGN	4

?CheatDU@@3_NA DB 01H DUP (?)				; CheatDU
	ALIGN	4

?CheatDL@@3_NA DB 01H DUP (?)				; CheatDL
	ALIGN	4

?CheatDR@@3_NA DB 01H DUP (?)				; CheatDR
	ALIGN	4

?CheckGame@@3_NA DB 01H DUP (?)				; CheckGame
	ALIGN	4

?CheckGame2@@3_NA DB 01H DUP (?)			; CheckGame2
	ALIGN	4

?GameReady@@3_NA DB 01H DUP (?)				; GameReady
	ALIGN	4

?gcheck@@3PAEA DB 01H DUP (?)				; gcheck
	ALIGN	4

?gcheck2@@3PAEA DB 01H DUP (?)				; gcheck2
	ALIGN	4

?gchecktu@@3PAEA DB 01H DUP (?)				; gchecktu
	ALIGN	4

?gchecktu2@@3PAEA DB 01H DUP (?)			; gchecktu2
	ALIGN	4

?BootInfo@@3KA DD 01H DUP (?)				; BootInfo
?hTh01@@3PAXA DD 01H DUP (?)				; hTh01
?hThId01@@3KA DD 01H DUP (?)				; hThId01
?KrnlType@@3KA DD 01H DUP (?)				; KrnlType
?ZValue@@3MA DD	01H DUP (?)				; ZValue
?SHHCZValue@@3MA DD 01H DUP (?)				; SHHCZValue
?g_app_done@@3_NA DB 01H DUP (?)			; g_app_done
	ALIGN	4

?g_d3d_device@@3PAUD3DDevice@@A DD 01H DUP (?)		; g_d3d_device
?dwPlayerIndex@@3KA DD 01H DUP (?)			; dwPlayerIndex
?g_killThread@@3HA DD 01H DUP (?)			; g_killThread
;	COMDAT ??_C@_0BA@LMBLDOEH@Plotting?5Points?$AA@
.rdata	SEGMENT
??_C@_0BA@LMBLDOEH@Plotting?5Points?$AA@ DB 'Plotting Points', 00H ; `string'
	.rdata
Game_Init DD	0584109b7H
	DD	?Boot_584109B7@@YAXXZ
	DD	0584108dbH
	DD	?Boot_584108DB@@YAXXZ
	DD	0584109dbH
	DD	?Boot_584109DB@@YAXXZ
	DD	058410886H
	DD	?Boot_58410886@@YAXXZ
	DD	044500807H
	DD	?Boot_44500807@@YAXXZ
	DD	04e4d07d8H
	DD	?Boot_4E4D07D8@@YAXXZ
	DD	058410a06H
	DD	?Boot_58410A06@@YAXXZ
	DD	0413307d9H
	DD	?Boot_413307D9@@YAXXZ
	DD	058411233H
	DD	?Boot_58411233@@YAXXZ
	DD	058410a22H
	DD	?Boot_58410A22@@YAXXZ
	DD	058410aa3H
	DD	?Boot_58410AA3@@YAXXZ
	DD	058410964H
	DD	?Boot_58410964@@YAXXZ
	DD	05345080cH
	DD	?Boot_5345080C@@YAXXZ
	DD	058410b22H
	DD	?Boot_58410B22@@YAXXZ
	DD	058411204H
	DD	?Boot_58411204@@YAXXZ
	DD	0494707d1H
	DD	?Boot_494707D1@@YAXXZ
	DD	058410807H
	DD	?Boot_58410807@@YAXXZ
	DD	0584107feH
	DD	?Boot_584107FE@@YAXXZ
	DD	0584108c3H
	DD	?Boot_584108C3@@YAXXZ
	DD	0454109e0H
	DD	?Boot_454109E0@@YAXXZ
	DD	0464507ddH
	DD	?Boot_464507DD@@YAXXZ
	DD	041560855H
	DD	?Boot_41560855@@YAXXZ
	DD	0415608c3H
	DD	?Boot_415608C3@@YAXXZ
	DD	058410957H
	DD	?Boot_58410957@@YAXXZ
	DD	0415608fcH
	DD	?Boot_415608FC@@YAXXZ
	DD	0415607e6H
	DD	?Boot_415607E6@@YAXXZ
	DD	0415608cbH
	DD	?Boot_415608CB@@YAXXZ
	DD	04156081cH
	DD	?Boot_4156081C@@YAXXZ
	DD	0534307d3H
	DD	?Boot_534307D3@@YAXXZ
	DD	045410968H
	DD	?Boot_45410968@@YAXXZ
	DD	0445407deH
	DD	?Boot_445407DE@@YAXXZ
	DD	04b4d07f2H
	DD	?Boot_4B4D07F2@@YAXXZ
	DD	0435907d5H
	DD	?Boot_435907D5@@YAXXZ
	DD	04b4e07e5H
	DD	?Boot_4B4E07E5@@YAXXZ
	DD	0555308b7H
	DD	?Boot_555308b7@@YAXXZ
	DD	0425307f5H
	DD	?Boot_425307F5@@YAXXZ
szModuleName DB	'Trainer.dll', 00H
;	COMDAT ??_C@_15OIFBPDOF@O?$AAK?$AA?$AA?$AA@
.rdata	SEGMENT
??_C@_15OIFBPDOF@O?$AAK?$AA?$AA?$AA@ DB 00H, 'O', 00H, 'K', 00H, 00H ; `string'
;	COMDAT ??_C@_1BC@GOAHBJBA@C?$AAo?$AAn?$AAt?$AAi?$AAn?$AAu?$AAe?$AA?$AA?$AA@
.rdata	SEGMENT
??_C@_1BC@GOAHBJBA@C?$AAo?$AAn?$AAt?$AAi?$AAn?$AAu?$AAe?$AA?$AA?$AA@ DB 00H
	DB	'C', 00H, 'o', 00H, 'n', 00H, 't', 00H, 'i', 00H, 'n', 00H, 'u'
	DB	00H, 'e', 00H, 00H				; `string'
	.data
?NOPThis@@3KA DD 060000000H				; NOPThis
?Max_IT@@3KA DD	03b9ac9ffH				; Max_IT
?Li_r11_Max@@3KA DD 039607530H				; Li_r11_Max
?Li_r11_999@@3KA DD 0396003e7H				; Li_r11_999
?Li_r11_99@@3KA DD 039600063H				; Li_r11_99
?Addi_r11_FFFF@@3KA DD 0396bffffH			; Addi_r11_FFFF
?Addi_r11_nil@@3KA DD 0396b0000H			; Addi_r11_nil
?Addi_r11_1@@3KA DD 0396b0001H				; Addi_r11_1
?nop@@3PAEA DB	060H					; nop
	DB	00H
	DB	00H
	DB	00H
?nopnano@@3PAEA DB 060H					; nopnano
	DB	00H
	DB	00H
	DB	00H
?nopnades@@3PAEA DB 060H				; nopnades
	DB	00H
	DB	00H
	DB	00H
?nopammo@@3PAEA DB 060H					; nopammo
	DB	00H
	DB	00H
	DB	00H
?nophealth@@3PAEA DB 060H				; nophealth
	DB	00H
	DB	00H
	DB	00H
?nopnv@@3PAEA DB 060H					; nopnv
	DB	00H
	DB	00H
	DB	00H
?nano@@3PAEA DB	07dH					; nano
	DB	06bH
	DB	052H
	DB	014H
?XpMode@@3PAEA DB 039H					; XpMode
	DB	060H
	DB	07fH
	DB	0ffH
?ammo@@3PAEA DB	091H					; ammo
	DB	07fH
	DB	05H
	DB	084H
?health@@3PAEA DB 091H					; health
	DB	05fH
	DB	00H
	DB	010H
?healthact@@3PAEA DB 039H				; healthact
	DB	060H
	DB	027H
	DB	010H
?nades@@3PAEA DB 090H					; nades
	DB	088H
	DB	00H
	DB	064H
?nv@@3PAEA DB	0d1H					; nv
	DB	0bfH
	DB	01H
	DB	060H
?g_strButtons@@3PAPB_WA DD ??_C@_1BC@GOAHBJBA@C?$AAo?$AAn?$AAt?$AAi?$AAn?$AAu?$AAe?$AA?$AA?$AA@ ; g_strButtons
?Prompt@@3KA DD	09999H					; Prompt
?btnOk@@3PAPB_WA DD ??_C@_15OIFBPDOF@O?$AAK?$AA?$AA?$AA@ ; btnOk
?AotGbuf@@3PAKA DD 0fc000018H				; AotGbuf
	DD	0d003021cH
?AotGbuf1@@3PAKA DD 0817d0148H				; AotGbuf1
	DD	093dd014cH
?Timer1_addr@@3KA DD 082661fbcH				; Timer1_addr
?Timer2_addr@@3KA DD 082662014H				; Timer2_addr
?AfBCbuf@@3PAKA DD 0913f0370H				; AfBCbuf
	DD	0911f0364H
?AfBCAmmo@@3PAKA DD 0ed0d4828H				; AfBCAmmo
	DD	0d11f03acH
?AConVbuf@@3PAKA DD 041820370H				; AConVbuf
	DD	0c01a0000H
?AConVbufAmmo@@3PAKA DD 0812b0064H			; AConVbufAmmo
	DD	03929ffffH
?AConVbufGren@@3PAKA DD 0817d0000H			; AConVbufGren
	DD	0396bffffH
?AConVbufAfter@@3PAKA DD 04bf13a31H			; AConVbufAfter
	DD	0c01f0000H
?AlienBassbuf@@3PAKA DD 0419a007cH			; AlienBassbuf
	DD	0817f02d8H
?AlienBassbufAmmo@@3PAKA DD 0817e0330H			; AlienBassbufAmmo
	DD	0815e032cH
?AlienBassbufItem@@3PAKA DD 0814b0650H			; AlienBassbufItem
	DD	0890a0261H
?AlienBdecbuf@@3PAKA DD 0419a007cH			; AlienBdecbuf
	DD	0817f02dcH
?AlienBdecbufAmmo@@3PAKA DD 0817e0334H			; AlienBdecbufAmmo
	DD	0815e0330H
?AlienBdecbufItem@@3PAKA DD 0814b0658H			; AlienBdecbufItem
	DD	0890a0265H
?AlienBevobuf@@3PAKA DD 0419a007cH			; AlienBevobuf
	DD	0817f02c8H
?AlienBevobufAmmo@@3PAKA DD 0815e0320H			; AlienBevobufAmmo
	DD	0817e031cH
?AlienBevobufItem@@3PAKA DD 0814b0610H			; AlienBevobufItem
	DD	0890a0251H
?AlienBevoXPValue@@3KA DD 0497423f0H			; AlienBevoXPValue
?addr_ammoACM@@3KA DD 08236d9c4H			; addr_ammoACM
?Ammo_OnACM@@3KA DD 0396003e7H				; Ammo_OnACM
?Ammo_offACM@@3KA DD 0911e0000H				; Ammo_offACM
?AlienCMXValue@@3MA DD 044fa0000r		; 2000	; AlienCMXValue
?AlienRbuf@@3PAKA DD 0814b0308H				; AlienRbuf
	DD	0812b0304H
?AlienRbufAmmo@@3PAKA DD 07ca8f82eH			; AlienRbufAmmo
	DD	07c853850H
?AlienRbufItem@@3PAKA DD 0814b0658H			; AlienRbufItem
	DD	0890a0265H
?addr_ammoAitd@@3KA DD 08244e330H			; addr_ammoAitd
?Timer1_addrAitd@@3KA DD 082451ba8H			; Timer1_addrAitd
?Timer2_addrAitd@@3KA DD 0822ac200H			; Timer2_addrAitd
?Arkadianbuf@@3PAKA DD 03d608210H			; Arkadianbuf
	DD	0d01f0d98H
?ArkadianTimerbuf@@3PAKA DD 0556b003eH			; ArkadianTimerbuf
	DD	09143001cH
?Arkadianxpbuf@@3PAKA DD 07d6bf214H			; Arkadianxpbuf
	DD	0814a0550H
?Arkadianammobuf@@3PAKA DD 0914b0004H			; Arkadianammobuf
	DD	04bfff341H
?Arkadianweabuf@@3PAKA DD 0817f23c4H			; Arkadianweabuf
	DD	0939f3720H
?Arkadianabilbuf@@3PAKA DD 02f040000H			; Arkadianabilbuf
	DD	0917f0038H
?AssaultHbuf@@3PAKA DD 02b0b0000H			; AssaultHbuf
	DD	0915f15f0H
?AssaultHNukebuf@@3PAKA DD 0556b3032H			; AssaultHNukebuf
	DD	0913f15f8H
?AssaultHSkillbuf@@3PAKA DD 0917e15ecH			; AssaultHSkillbuf
	DD	038810050H
?AssaultHGrenbuf@@3PAKA DD 0396b0d20H			; AssaultHGrenbuf
	DD	0913f15f4H
?AssaultH2buf@@3PAKA DD 039290001H			; AssaultH2buf
	DD	0914b0d54H
?AssaultH2Nukebuf@@3PAKA DD 039080001H			; AssaultH2Nukebuf
	DD	0914b0d5cH
?AssaultH2Skillbuf@@3PAKA DD 07d4a4a14H			; AssaultH2Skillbuf
	DD	0914b0d50H
?AssaultH2Grenbuf@@3PAKA DD 02b090000H			; AssaultH2Grenbuf
	DD	091771a40H
?BFHLbuf@@3PAKA DD 0eda007f2H				; BFHLbuf
	DD	0c19c0014H
?BFHLbufAmmo@@3PAKA DD 07d0a5850H			; BFHLbufAmmo
	DD	0917f0070H
?BFHLbufstam@@3PAKA DD 0c003002cH			; BFHLbufstam
	DD	0eda1002aH
?BFHLbufspec@@3PAKA DD 0eda1073aH			; BFHLbufspec
	DD	0d1bf0020H
?Weaponselect@@3KA DD 083551cacH			; Weaponselect
?pokeShealth@@3KA DD 039400fa0H				; pokeShealth
?addr_ammo1@@3KA DD 08236d9c4H				; addr_ammo1
?Ammo_On@@3KA DD 0f423fH				; Ammo_On
?Ammo_off@@3KA DD 0911e0000H				; Ammo_off
?XValue@@3MA DD	044fa0000r			; 2000	; XValue
?XPValue@@3MA DD 04e6e6b28r			; 1e+009 ; XPValue
?CODCHealthbuf@@3PAKA DD 0817f01dcH			; CODCHealthbuf
	DD	07f23cb78H
?CODCAmmobuf@@3PAKA DD 07d2a592eH			; CODCAmmobuf
	DD	0813f1ed0H
?CODMWAmmobuf@@3PAKA DD 07d7e5850H			; CODMWAmmobuf
	DD	07d6ae92eH
?CODMW3Ammobuf@@3PAKA DD 07d3d5050H			; CODMW3Ammobuf
	DD	07d2b192eH
?CODGAmmobuf@@3PAKA DD 07d3d5050H			; CODGAmmobuf
	DD	07d2b192eH
?ConDOaddr_ammo1@@3KA DD 082291a7cH			; ConDOaddr_ammo1
?ConDOHVbuf@@3PAKA DD 0ed8cf028H			; ConDOHVbuf
	DD	0d19f07c4H
?ConDOGrenbuf@@3PAKA DD 0917d00e4H			; ConDOGrenbuf
	DD	0817d00e4H
?ConDOammobuf@@3PAKA DD 0917e0148H			; ConDOammobuf
	DD	0817e00e4H
?crysisbuf@@3PAKA DD 0fc0a5feeH				; crysisbuf
	DD	0d01f01f4H
?crysisbufSpecial@@3PAKA DD 0d3ff0030H			; crysisbufSpecial
	DD	038210150H
?crysisbufAmmo@@3PAKA DD 0419a000cH			; crysisbufAmmo
	DD	093a30014H
?crysisbufGren@@3PAKA DD 07d484b78H			; crysisbufGren
	DD	091030000H
?crysisbufNano@@3PAKA DD 0c00a7c90H			; crysisbufNano
	DD	0d1bf0160H
?CursedCXValue@@3MA DD 0461c4000r		; 10000	; CursedCXValue
?EFbuf@@3PAKA DD 0d01f00a4H				; EFbuf
	DD	0eca70372H
?EFAmmobuf@@3PAKA DD 093830014H				; EFAmmobuf
	DD	04800001cH
?EFstambuf@@3PAKA DD 0d01f13b8H				; EFstambuf
	DD	0ed5f0028H
?EFGrenbuf@@3PAKA DD 093a30000H				; EFGrenbuf
	DD	083fe017cH
?addr_ammoSHHC@@3KA DD 082270ad0H			; addr_ammoSHHC
?Ammo_OnSHHC@@3KA DD 0396003e7H				; Ammo_OnSHHC
?Ammo_offSHHC@@3KA DD 07d6a5850H			; Ammo_offSHHC
?SHHCXValue@@3MA DD 043480000r			; 200	; SHHCXValue
?CashValue@@3KA DD 01f20cH				; CashValue
?WDXValue@@3MA DD 042c80000r			; 100	; WDXValue
?firstrun@@3_NA DB 01H					; firstrun
?random_mode@@3_NA DB 01H				; random_mode
	ORG $+2
?g_app_name@@3PBDB DD ??_C@_0BA@LMBLDOEH@Plotting?5Points?$AA@ ; g_app_name
;	COMDAT ?g_XMUnsignedFix@@3UXMVECTORF32@@B
.rdata	SEGMENT
?g_XMUnsignedFix@@3UXMVECTORF32@@B DD 04f000000r ; 2.14748e+009 ; g_XMUnsignedFix
	DD	04f000000r			; 2.14748e+009
	DD	04f000000r			; 2.14748e+009
	DD	04f000000r			; 2.14748e+009
;	COMDAT ?g_XMMaxUInt@@3UXMVECTORF32@@B
.rdata	SEGMENT
?g_XMMaxUInt@@3UXMVECTORF32@@B DD 04f7fffffr	; 4.29497e+009 ; g_XMMaxUInt
	DD	04f7fffffr			; 4.29497e+009
	DD	04f7fffffr			; 4.29497e+009
	DD	04f7fffffr			; 4.29497e+009
;	COMDAT ?g_XMMaxInt@@3UXMVECTORF32@@B
.rdata	SEGMENT
?g_XMMaxInt@@3UXMVECTORF32@@B DD 04effffffr	; 2.14748e+009 ; g_XMMaxInt
	DD	04effffffr			; 2.14748e+009
	DD	04effffffr			; 2.14748e+009
	DD	04effffffr			; 2.14748e+009
;	COMDAT ?g_XMFixUnsigned@@3UXMVECTORF32@@B
.rdata	SEGMENT
?g_XMFixUnsigned@@3UXMVECTORF32@@B DD 04f000000r ; 2.14748e+009 ; g_XMFixUnsigned
	DD	04f000000r			; 2.14748e+009
	DD	04f000000r			; 2.14748e+009
	DD	04f000000r			; 2.14748e+009
;	COMDAT ?g_XMAddByte4@@3UXMVECTORF32@@B
.rdata	SEGMENT
?g_XMAddByte4@@3UXMVECTORF32@@B DD 0c3000000r	; -128	; g_XMAddByte4
	DD	0c7000000r			; -32768
	DD	0cb000000r			; -8.38861e+006
	DD	000000000r			; 0
;	COMDAT ?g_XMXorByte4@@3UXMVECTORI32@@B
.rdata	SEGMENT
?g_XMXorByte4@@3UXMVECTORI32@@B DD 080H			; g_XMXorByte4
	DD	08000H
	DD	0800000H
	DD	00H
;	COMDAT ?g_XMMaskByte4@@3UXMVECTORI32@@B
.rdata	SEGMENT
?g_XMMaskByte4@@3UXMVECTORI32@@B DD 0ffH		; g_XMMaskByte4
	DD	0ff00H
	DD	0ff0000H
	DD	0ff000000H
;	COMDAT ?g_XMMulDec4@@3UXMVECTORF32@@B
.rdata	SEGMENT
?g_XMMulDec4@@3UXMVECTORF32@@B DD 03f800000r	; 1	; g_XMMulDec4
	DD	03a800000r			; 0.000976563
	DD	035800000r			; 9.53674e-007
	DD	030800000r			; 9.31323e-010
;	COMDAT ?g_XMAddDec4@@3UXMVECTORF32@@B
.rdata	SEGMENT
?g_XMAddDec4@@3UXMVECTORF32@@B DD 0c4000000r	; -512	; g_XMAddDec4
	DD	0c9000000r			; -524288
	DD	0ce000000r			; -5.36871e+008
	DD	000000000r			; 0
;	COMDAT ?g_XMAddUDec4@@3UXMVECTORF32@@B
.rdata	SEGMENT
?g_XMAddUDec4@@3UXMVECTORF32@@B DD 000000000r	; 0	; g_XMAddUDec4
	DD	000000000r			; 0
	DD	000000000r			; 0
	DD	04f000000r			; 2.14748e+009
;	COMDAT ?g_XMXorDec4@@3UXMVECTORI32@@B
.rdata	SEGMENT
?g_XMXorDec4@@3UXMVECTORI32@@B DD 0200H			; g_XMXorDec4
	DD	080000H
	DD	020000000H
	DD	00H
;	COMDAT ?g_XMMaskDec4@@3UXMVECTORI32@@B
.rdata	SEGMENT
?g_XMMaskDec4@@3UXMVECTORI32@@B DD 03ffH		; g_XMMaskDec4
	DD	0ffc00H
	DD	03ff00000H
	DD	0c0000000H
;	COMDAT ?g_XMMulIco4@@3UXMVECTORF32@@B
.rdata	SEGMENT
?g_XMMulIco4@@3UXMVECTORF32@@B DD 03f800000r	; 1	; g_XMMulIco4
	DD	039800000r			; 0.000244141
	DD	03f800000r			; 1
	DD	031800000r			; 3.72529e-009
;	COMDAT ?g_XMAddIco4@@3UXMVECTORF32@@B
.rdata	SEGMENT
?g_XMAddIco4@@3UXMVECTORF32@@B DD 0c9000000r	; -524288 ; g_XMAddIco4
	DD	000000000r			; 0
	DD	0c9000000r			; -524288
	DD	000000000r			; 0
;	COMDAT ?g_XMAddUIco4@@3UXMVECTORF32@@B
.rdata	SEGMENT
?g_XMAddUIco4@@3UXMVECTORF32@@B DD 000000000r	; 0	; g_XMAddUIco4
	DD	04f000000r			; 2.14748e+009
	DD	000000000r			; 0
	DD	04f000000r			; 2.14748e+009
;	COMDAT ?g_XMAddXIco4@@3UXMVECTORF32@@B
.rdata	SEGMENT
?g_XMAddXIco4@@3UXMVECTORF32@@B DD 0c9000000r	; -524288 ; g_XMAddXIco4
	DD	000000000r			; 0
	DD	0c9000000r			; -524288
	DD	04f000000r			; 2.14748e+009
;	COMDAT ?g_XMXorIco4@@3UXMVECTORI32@@B
.rdata	SEGMENT
?g_XMXorIco4@@3UXMVECTORI32@@B DD 080000H		; g_XMXorIco4
	DD	00H
	DD	080000H
	DD	00H
;	COMDAT ?g_XMXorXIco4@@3UXMVECTORI32@@B
.rdata	SEGMENT
?g_XMXorXIco4@@3UXMVECTORI32@@B DD 080000H		; g_XMXorXIco4
	DD	00H
	DD	080000H
	DD	080000000H
;	COMDAT ?g_XMMaskIco4@@3UXMVECTORI32@@B
.rdata	SEGMENT
?g_XMMaskIco4@@3UXMVECTORI32@@B DD 0fffffH		; g_XMMaskIco4
	DD	0fffff000H
	DD	0fffffH
	DD	0f0000000H
;	COMDAT ?g_XMXorDHen3@@3UXMVECTORI32@@B
.rdata	SEGMENT
?g_XMXorDHen3@@3UXMVECTORI32@@B DD 0200H		; g_XMXorDHen3
	DD	0100000H
	DD	00H
	DD	00H
;	COMDAT ?g_XMXorHenD3@@3UXMVECTORI32@@B
.rdata	SEGMENT
?g_XMXorHenD3@@3UXMVECTORI32@@B DD 0400H		; g_XMXorHenD3
	DD	0200000H
	DD	00H
	DD	00H
;	COMDAT ?g_XMMulDHen3@@3UXMVECTORF32@@B
.rdata	SEGMENT
?g_XMMulDHen3@@3UXMVECTORF32@@B DD 03f800000r	; 1	; g_XMMulDHen3
	DD	03a800000r			; 0.000976563
	DD	035000000r			; 4.76837e-007
	DD	000000000r			; 0
;	COMDAT ?g_XMMulHenD3@@3UXMVECTORF32@@B
.rdata	SEGMENT
?g_XMMulHenD3@@3UXMVECTORF32@@B DD 03f800000r	; 1	; g_XMMulHenD3
	DD	03a000000r			; 0.000488281
	DD	034800000r			; 2.38419e-007
	DD	000000000r			; 0
;	COMDAT ?g_XMAddDHen3@@3UXMVECTORF32@@B
.rdata	SEGMENT
?g_XMAddDHen3@@3UXMVECTORF32@@B DD 0c4000000r	; -512	; g_XMAddDHen3
	DD	0c9800000r			; -1.04858e+006
	DD	000000000r			; 0
	DD	000000000r			; 0
;	COMDAT ?g_XMAddHenD3@@3UXMVECTORF32@@B
.rdata	SEGMENT
?g_XMAddHenD3@@3UXMVECTORF32@@B DD 0c4800000r	; -1024	; g_XMAddHenD3
	DD	0ca000000r			; -2.09715e+006
	DD	000000000r			; 0
	DD	000000000r			; 0
;	COMDAT ?g_XMAddUHenD3@@3UXMVECTORF32@@B
.rdata	SEGMENT
?g_XMAddUHenD3@@3UXMVECTORF32@@B DD 000000000r	; 0	; g_XMAddUHenD3
	DD	000000000r			; 0
	DD	04f000000r			; 2.14748e+009
	DD	000000000r			; 0
;	COMDAT ?g_XMMaskDHen3@@3UXMVECTORI32@@B
.rdata	SEGMENT
?g_XMMaskDHen3@@3UXMVECTORI32@@B DD 03ffH		; g_XMMaskDHen3
	DD	01ffc00H
	DD	0ffe00000H
	DD	00H
;	COMDAT ?g_XMMaskHenD3@@3UXMVECTORI32@@B
.rdata	SEGMENT
?g_XMMaskHenD3@@3UXMVECTORI32@@B DD 07ffH		; g_XMMaskHenD3
	DD	03ff800H
	DD	0ffc00000H
	DD	00H
;	COMDAT ?g_XMFlipYW@@3UXMVECTORI32@@B
.rdata	SEGMENT
?g_XMFlipYW@@3UXMVECTORI32@@B DD 00H			; g_XMFlipYW
	DD	080000000H
	DD	00H
	DD	080000000H
;	COMDAT ?g_XMFlipZW@@3UXMVECTORI32@@B
.rdata	SEGMENT
?g_XMFlipZW@@3UXMVECTORI32@@B DD 00H			; g_XMFlipZW
	DD	00H
	DD	080000000H
	DD	080000000H
;	COMDAT ?g_XMFlipYZ@@3UXMVECTORI32@@B
.rdata	SEGMENT
?g_XMFlipYZ@@3UXMVECTORI32@@B DD 00H			; g_XMFlipYZ
	DD	080000000H
	DD	080000000H
	DD	00H
;	COMDAT ?g_XMFlipW@@3UXMVECTORI32@@B
.rdata	SEGMENT
?g_XMFlipW@@3UXMVECTORI32@@B DD 00H			; g_XMFlipW
	DD	00H
	DD	00H
	DD	080000000H
;	COMDAT ?g_XMFlipZ@@3UXMVECTORI32@@B
.rdata	SEGMENT
?g_XMFlipZ@@3UXMVECTORI32@@B DD 00H			; g_XMFlipZ
	DD	00H
	DD	080000000H
	DD	00H
;	COMDAT ?g_XMFlipY@@3UXMVECTORI32@@B
.rdata	SEGMENT
?g_XMFlipY@@3UXMVECTORI32@@B DD 00H			; g_XMFlipY
	DD	080000000H
	DD	00H
	DD	00H
;	COMDAT ?g_XMFixupY16W16@@3UXMVECTORF32@@B
.rdata	SEGMENT
?g_XMFixupY16W16@@3UXMVECTORF32@@B DD 03f800000r ; 1	; g_XMFixupY16W16
	DD	03f800000r			; 1
	DD	037800000r			; 1.52588e-005
	DD	037800000r			; 1.52588e-005
;	COMDAT ?g_XMFixupY16@@3UXMVECTORF32@@B
.rdata	SEGMENT
?g_XMFixupY16@@3UXMVECTORF32@@B DD 03f800000r	; 1	; g_XMFixupY16
	DD	037800000r			; 1.52588e-005
	DD	000000000r			; 0
	DD	000000000r			; 0
;	COMDAT ?g_XMPermute0Z0W1Z1W@@3UXMVECTORI32@@B
.rdata	SEGMENT
?g_XMPermute0Z0W1Z1W@@3UXMVECTORI32@@B DD 08090a0bH	; g_XMPermute0Z0W1Z1W
	DD	0c0d0e0fH
	DD	018191a1bH
	DD	01c1d1e1fH
;	COMDAT ?g_XMPermute0X0Y1X1Y@@3UXMVECTORI32@@B
.rdata	SEGMENT
?g_XMPermute0X0Y1X1Y@@3UXMVECTORI32@@B DD 010203H	; g_XMPermute0X0Y1X1Y
	DD	04050607H
	DD	010111213H
	DD	014151617H
;	COMDAT ?g_XMSwizzleZXYW@@3UXMVECTORI32@@B
.rdata	SEGMENT
?g_XMSwizzleZXYW@@3UXMVECTORI32@@B DD 08090a0bH		; g_XMSwizzleZXYW
	DD	010203H
	DD	04050607H
	DD	0c0d0e0fH
;	COMDAT ?g_XMSwizzleYZXW@@3UXMVECTORI32@@B
.rdata	SEGMENT
?g_XMSwizzleYZXW@@3UXMVECTORI32@@B DD 04050607H		; g_XMSwizzleYZXW
	DD	08090a0bH
	DD	010203H
	DD	0c0d0e0fH
;	COMDAT ?g_XMSwizzleYXZW@@3UXMVECTORI32@@B
.rdata	SEGMENT
?g_XMSwizzleYXZW@@3UXMVECTORI32@@B DD 04050607H		; g_XMSwizzleYXZW
	DD	010203H
	DD	08090a0bH
	DD	0c0d0e0fH
;	COMDAT ?g_XMSwizzleXYZX@@3UXMVECTORI32@@B
.rdata	SEGMENT
?g_XMSwizzleXYZX@@3UXMVECTORI32@@B DD 010203H		; g_XMSwizzleXYZX
	DD	04050607H
	DD	08090a0bH
	DD	010203H
;	COMDAT ?g_XMSwizzleXYXY@@3UXMVECTORI32@@B
.rdata	SEGMENT
?g_XMSwizzleXYXY@@3UXMVECTORI32@@B DD 010203H		; g_XMSwizzleXYXY
	DD	04050607H
	DD	010203H
	DD	04050607H
;	COMDAT ?g_XMSelect1110@@3UXMVECTORI32@@B
.rdata	SEGMENT
?g_XMSelect1110@@3UXMVECTORI32@@B DD 0ffffffffH		; g_XMSelect1110
	DD	0ffffffffH
	DD	0ffffffffH
	DD	00H
;	COMDAT ?g_XMSelect1100@@3UXMVECTORI32@@B
.rdata	SEGMENT
?g_XMSelect1100@@3UXMVECTORI32@@B DD 0ffffffffH		; g_XMSelect1100
	DD	0ffffffffH
	DD	00H
	DD	00H
;	COMDAT ?g_XMSelect1000@@3UXMVECTORI32@@B
.rdata	SEGMENT
?g_XMSelect1000@@3UXMVECTORI32@@B DD 0ffffffffH		; g_XMSelect1000
	DD	00H
	DD	00H
	DD	00H
;	COMDAT ?g_XMOneHalfMinusEpsilon@@3UXMVECTORI32@@B
.rdata	SEGMENT
?g_XMOneHalfMinusEpsilon@@3UXMVECTORI32@@B DD 03efffffdH ; g_XMOneHalfMinusEpsilon
	DD	03efffffdH
	DD	03efffffdH
	DD	03efffffdH
;	COMDAT ?g_XMSelect1010@@3UXMVECTORI32@@B
.rdata	SEGMENT
?g_XMSelect1010@@3UXMVECTORI32@@B DD 0ffffffffH		; g_XMSelect1010
	DD	00H
	DD	0ffffffffH
	DD	00H
;	COMDAT ?g_XMSelect0101@@3UXMVECTORI32@@B
.rdata	SEGMENT
?g_XMSelect0101@@3UXMVECTORI32@@B DD 00H		; g_XMSelect0101
	DD	0ffffffffH
	DD	00H
	DD	0ffffffffH
;	COMDAT ?g_XMNegateW@@3UXMVECTORF32@@B
.rdata	SEGMENT
?g_XMNegateW@@3UXMVECTORF32@@B DD 03f800000r	; 1	; g_XMNegateW
	DD	03f800000r			; 1
	DD	03f800000r			; 1
	DD	0bf800000r			; -1
;	COMDAT ?g_XMNegateZ@@3UXMVECTORF32@@B
.rdata	SEGMENT
?g_XMNegateZ@@3UXMVECTORF32@@B DD 03f800000r	; 1	; g_XMNegateZ
	DD	03f800000r			; 1
	DD	0bf800000r			; -1
	DD	03f800000r			; 1
;	COMDAT ?g_XMNegateY@@3UXMVECTORF32@@B
.rdata	SEGMENT
?g_XMNegateY@@3UXMVECTORF32@@B DD 03f800000r	; 1	; g_XMNegateY
	DD	0bf800000r			; -1
	DD	03f800000r			; 1
	DD	03f800000r			; 1
;	COMDAT ?g_XMNegateX@@3UXMVECTORF32@@B
.rdata	SEGMENT
?g_XMNegateX@@3UXMVECTORF32@@B DD 0bf800000r	; -1	; g_XMNegateX
	DD	03f800000r			; 1
	DD	03f800000r			; 1
	DD	03f800000r			; 1
;	COMDAT ?g_XMMaskByte@@3UXMVECTORI32@@B
.rdata	SEGMENT
?g_XMMaskByte@@3UXMVECTORI32@@B DD 0ffH			; g_XMMaskByte
	DD	0ffH
	DD	0ffH
	DD	0ffH
;	COMDAT ?g_XMNoFraction@@3UXMVECTORF32@@B
.rdata	SEGMENT
?g_XMNoFraction@@3UXMVECTORF32@@B DD 04b000000r	; 8.38861e+006 ; g_XMNoFraction
	DD	04b000000r			; 8.38861e+006
	DD	04b000000r			; 8.38861e+006
	DD	04b000000r			; 8.38861e+006
;	COMDAT ?g_XMNormalizeX16Y16Z16W16@@3UXMVECTORF32@@B
.rdata	SEGMENT
?g_XMNormalizeX16Y16Z16W16@@3UXMVECTORF32@@B DD 038000100r ; 3.05185e-005 ; g_XMNormalizeX16Y16Z16W16
	DD	038000100r			; 3.05185e-005
	DD	030000100r			; 4.65675e-010
	DD	030000100r			; 4.65675e-010
;	COMDAT ?g_XMFixX16Y16Z16W16@@3UXMVECTORF32@@B
.rdata	SEGMENT
?g_XMFixX16Y16Z16W16@@3UXMVECTORF32@@B DD 0c7000000r ; -32768 ; g_XMFixX16Y16Z16W16
	DD	0c7000000r			; -32768
	DD	000000000r			; 0
	DD	000000000r			; 0
;	COMDAT ?g_XMFlipX16Y16Z16W16@@3UXMVECTORI32@@B
.rdata	SEGMENT
?g_XMFlipX16Y16Z16W16@@3UXMVECTORI32@@B DD 08000H	; g_XMFlipX16Y16Z16W16
	DD	08000H
	DD	00H
	DD	00H
;	COMDAT ?g_XMMaskX16Y16Z16W16@@3UXMVECTORI32@@B
.rdata	SEGMENT
?g_XMMaskX16Y16Z16W16@@3UXMVECTORI32@@B DD 0ffffH	; g_XMMaskX16Y16Z16W16
	DD	0ffffH
	DD	0ffff0000H
	DD	0ffff0000H
;	COMDAT ?g_XMNormalizeX16Y16@@3UXMVECTORF32@@B
.rdata	SEGMENT
?g_XMNormalizeX16Y16@@3UXMVECTORF32@@B DD 038000100r ; 3.05185e-005 ; g_XMNormalizeX16Y16
	DD	030000100r			; 4.65675e-010
	DD	000000000r			; 0
	DD	000000000r			; 0
;	COMDAT ?g_XMFixX16Y16@@3UXMVECTORF32@@B
.rdata	SEGMENT
?g_XMFixX16Y16@@3UXMVECTORF32@@B DD 0c7000000r	; -32768 ; g_XMFixX16Y16
	DD	000000000r			; 0
	DD	000000000r			; 0
	DD	000000000r			; 0
;	COMDAT ?g_XMFlipX16Y16@@3UXMVECTORI32@@B
.rdata	SEGMENT
?g_XMFlipX16Y16@@3UXMVECTORI32@@B DD 08000H		; g_XMFlipX16Y16
	DD	00H
	DD	00H
	DD	00H
;	COMDAT ?g_XMMaskX16Y16@@3UXMVECTORI32@@B
.rdata	SEGMENT
?g_XMMaskX16Y16@@3UXMVECTORI32@@B DD 0ffffH		; g_XMMaskX16Y16
	DD	0ffff0000H
	DD	00H
	DD	00H
;	COMDAT ?g_XMNormalizeA2B10G10R10@@3UXMVECTORF32@@B
.rdata	SEGMENT
?g_XMNormalizeA2B10G10R10@@3UXMVECTORF32@@B DD 03b004020r ; 0.00195695 ; g_XMNormalizeA2B10G10R10
	DD	036004020r			; 1.91108e-006
	DD	031004020r			; 1.86629e-009
	DD	02faaaaabr			; 3.10441e-010
;	COMDAT ?g_XMFixAA2B10G10R10@@3UXMVECTORF32@@B
.rdata	SEGMENT
?g_XMFixAA2B10G10R10@@3UXMVECTORF32@@B DD 0c4000000r ; -512 ; g_XMFixAA2B10G10R10
	DD	0c9000000r			; -524288
	DD	0ce000000r			; -5.36871e+008
	DD	04f000000r			; 2.14748e+009
;	COMDAT ?g_XMFlipA2B10G10R10@@3UXMVECTORI32@@B
.rdata	SEGMENT
?g_XMFlipA2B10G10R10@@3UXMVECTORI32@@B DD 0200H		; g_XMFlipA2B10G10R10
	DD	080000H
	DD	020000000H
	DD	080000000H
;	COMDAT ?g_XMMaskA2B10G10R10@@3UXMVECTORI32@@B
.rdata	SEGMENT
?g_XMMaskA2B10G10R10@@3UXMVECTORI32@@B DD 03ffH		; g_XMMaskA2B10G10R10
	DD	0ffc00H
	DD	03ff00000H
	DD	0c0000000H
;	COMDAT ?g_XMNormalizeA8R8G8B8@@3UXMVECTORF32@@B
.rdata	SEGMENT
?g_XMNormalizeA8R8G8B8@@3UXMVECTORF32@@B DD 033808081r ; 5.98384e-008 ; g_XMNormalizeA8R8G8B8
	DD	037808081r			; 1.53186e-005
	DD	03b808081r			; 0.00392157
	DD	02f808081r			; 2.33744e-010
;	COMDAT ?g_XMFixAA8R8G8B8@@3UXMVECTORF32@@B
.rdata	SEGMENT
?g_XMFixAA8R8G8B8@@3UXMVECTORF32@@B DD 000000000r ; 0	; g_XMFixAA8R8G8B8
	DD	000000000r			; 0
	DD	000000000r			; 0
	DD	04f000000r			; 2.14748e+009
;	COMDAT ?g_XMFlipA8R8G8B8@@3UXMVECTORI32@@B
.rdata	SEGMENT
?g_XMFlipA8R8G8B8@@3UXMVECTORI32@@B DD 00H		; g_XMFlipA8R8G8B8
	DD	00H
	DD	00H
	DD	080000000H
;	COMDAT ?g_XMMaskA8R8G8B8@@3UXMVECTORI32@@B
.rdata	SEGMENT
?g_XMMaskA8R8G8B8@@3UXMVECTORI32@@B DD 0ff0000H		; g_XMMaskA8R8G8B8
	DD	0ff00H
	DD	0ffH
	DD	0ff000000H
;	COMDAT ?g_XMNegOneMask@@3UXMVECTORI32@@B
.rdata	SEGMENT
?g_XMNegOneMask@@3UXMVECTORI32@@B DD 0ffffffffH		; g_XMNegOneMask
	DD	0ffffffffH
	DD	0ffffffffH
	DD	0ffffffffH
;	COMDAT ?g_XMFltMax@@3UXMVECTORI32@@B
.rdata	SEGMENT
?g_XMFltMax@@3UXMVECTORI32@@B DD 07f7fffffH		; g_XMFltMax
	DD	07f7fffffH
	DD	07f7fffffH
	DD	07f7fffffH
;	COMDAT ?g_XMFltMin@@3UXMVECTORI32@@B
.rdata	SEGMENT
?g_XMFltMin@@3UXMVECTORI32@@B DD 0800000H		; g_XMFltMin
	DD	0800000H
	DD	0800000H
	DD	0800000H
;	COMDAT ?g_XMAbsMask@@3UXMVECTORI32@@B
.rdata	SEGMENT
?g_XMAbsMask@@3UXMVECTORI32@@B DD 07fffffffH		; g_XMAbsMask
	DD	07fffffffH
	DD	07fffffffH
	DD	07fffffffH
;	COMDAT ?g_XMQNaNTest@@3UXMVECTORI32@@B
.rdata	SEGMENT
?g_XMQNaNTest@@3UXMVECTORI32@@B DD 07fffffH		; g_XMQNaNTest
	DD	07fffffH
	DD	07fffffH
	DD	07fffffH
;	COMDAT ?g_XMQNaN@@3UXMVECTORI32@@B
.rdata	SEGMENT
?g_XMQNaN@@3UXMVECTORI32@@B DD 07fc00000H		; g_XMQNaN
	DD	07fc00000H
	DD	07fc00000H
	DD	07fc00000H
;	COMDAT ?g_XMInfinity@@3UXMVECTORI32@@B
.rdata	SEGMENT
?g_XMInfinity@@3UXMVECTORI32@@B DD 07f800000H		; g_XMInfinity
	DD	07f800000H
	DD	07f800000H
	DD	07f800000H
;	COMDAT ?g_XMEpsilon@@3UXMVECTORF32@@B
.rdata	SEGMENT
?g_XMEpsilon@@3UXMVECTORF32@@B DD 034000000r	; 1.19209e-007 ; g_XMEpsilon
	DD	034000000r			; 1.19209e-007
	DD	034000000r			; 1.19209e-007
	DD	034000000r			; 1.19209e-007
;	COMDAT ?g_XMReciprocalTwoPi@@3UXMVECTORF32@@B
.rdata	SEGMENT
?g_XMReciprocalTwoPi@@3UXMVECTORF32@@B DD 03e22f983r ; 0.159155 ; g_XMReciprocalTwoPi
	DD	03e22f983r			; 0.159155
	DD	03e22f983r			; 0.159155
	DD	03e22f983r			; 0.159155
;	COMDAT ?g_XMTwoPi@@3UXMVECTORF32@@B
.rdata	SEGMENT
?g_XMTwoPi@@3UXMVECTORF32@@B DD 040c90fdbr	; 6.28319 ; g_XMTwoPi
	DD	040c90fdbr			; 6.28319
	DD	040c90fdbr			; 6.28319
	DD	040c90fdbr			; 6.28319
;	COMDAT ?g_XMReciprocalPi@@3UXMVECTORF32@@B
.rdata	SEGMENT
?g_XMReciprocalPi@@3UXMVECTORF32@@B DD 03ea2f983r ; 0.31831 ; g_XMReciprocalPi
	DD	03ea2f983r			; 0.31831
	DD	03ea2f983r			; 0.31831
	DD	03ea2f983r			; 0.31831
;	COMDAT ?g_XMPi@@3UXMVECTORF32@@B
.rdata	SEGMENT
?g_XMPi@@3UXMVECTORF32@@B DD 040490fdbr		; 3.14159 ; g_XMPi
	DD	040490fdbr			; 3.14159
	DD	040490fdbr			; 3.14159
	DD	040490fdbr			; 3.14159
;	COMDAT ?g_XMHalfPi@@3UXMVECTORF32@@B
.rdata	SEGMENT
?g_XMHalfPi@@3UXMVECTORF32@@B DD 03fc90fdbr	; 1.5708 ; g_XMHalfPi
	DD	03fc90fdbr			; 1.5708
	DD	03fc90fdbr			; 1.5708
	DD	03fc90fdbr			; 1.5708
;	COMDAT ?g_XMNegativePi@@3UXMVECTORF32@@B
.rdata	SEGMENT
?g_XMNegativePi@@3UXMVECTORF32@@B DD 0c0490fdbr	; -3.14159 ; g_XMNegativePi
	DD	0c0490fdbr			; -3.14159
	DD	0c0490fdbr			; -3.14159
	DD	0c0490fdbr			; -3.14159
;	COMDAT ?g_XMNegativeTwoPi@@3UXMVECTORF32@@B
.rdata	SEGMENT
?g_XMNegativeTwoPi@@3UXMVECTORF32@@B DD 0c0c90fdbr ; -6.28319 ; g_XMNegativeTwoPi
	DD	0c0c90fdbr			; -6.28319
	DD	0c0c90fdbr			; -6.28319
	DD	0c0c90fdbr			; -6.28319
;	COMDAT ?g_XMNegativeOneHalf@@3UXMVECTORF32@@B
.rdata	SEGMENT
?g_XMNegativeOneHalf@@3UXMVECTORF32@@B DD 0bf000000r ; -0.5 ; g_XMNegativeOneHalf
	DD	0bf000000r			; -0.5
	DD	0bf000000r			; -0.5
	DD	0bf000000r			; -0.5
;	COMDAT ?g_XMOneHalf@@3UXMVECTORF32@@B
.rdata	SEGMENT
?g_XMOneHalf@@3UXMVECTORF32@@B DD 03f000000r	; 0.5	; g_XMOneHalf
	DD	03f000000r			; 0.5
	DD	03f000000r			; 0.5
	DD	03f000000r			; 0.5
;	COMDAT ?g_XMNegativeOne@@3UXMVECTORF32@@B
.rdata	SEGMENT
?g_XMNegativeOne@@3UXMVECTORF32@@B DD 0bf800000r ; -1	; g_XMNegativeOne
	DD	0bf800000r			; -1
	DD	0bf800000r			; -1
	DD	0bf800000r			; -1
;	COMDAT ?g_XMZero@@3UXMVECTORF32@@B
.rdata	SEGMENT
?g_XMZero@@3UXMVECTORF32@@B DD 000000000r	; 0	; g_XMZero
	DD	000000000r			; 0
	DD	000000000r			; 0
	DD	000000000r			; 0
;	COMDAT ?g_XMOne3@@3UXMVECTORF32@@B
.rdata	SEGMENT
?g_XMOne3@@3UXMVECTORF32@@B DD 03f800000r	; 1	; g_XMOne3
	DD	03f800000r			; 1
	DD	03f800000r			; 1
	DD	000000000r			; 0
;	COMDAT ?g_XMOne@@3UXMVECTORF32@@B
.rdata	SEGMENT
?g_XMOne@@3UXMVECTORF32@@B DD 03f800000r	; 1	; g_XMOne
	DD	03f800000r			; 1
	DD	03f800000r			; 1
	DD	03f800000r			; 1
;	COMDAT ?g_XMMaskW@@3UXMVECTORI32@@B
.rdata	SEGMENT
?g_XMMaskW@@3UXMVECTORI32@@B DD 00H			; g_XMMaskW
	DD	00H
	DD	00H
	DD	0ffffffffH
;	COMDAT ?g_XMMaskZ@@3UXMVECTORI32@@B
.rdata	SEGMENT
?g_XMMaskZ@@3UXMVECTORI32@@B DD 00H			; g_XMMaskZ
	DD	00H
	DD	0ffffffffH
	DD	00H
;	COMDAT ?g_XMMaskY@@3UXMVECTORI32@@B
.rdata	SEGMENT
?g_XMMaskY@@3UXMVECTORI32@@B DD 00H			; g_XMMaskY
	DD	0ffffffffH
	DD	00H
	DD	00H
;	COMDAT ?g_XMMaskX@@3UXMVECTORI32@@B
.rdata	SEGMENT
?g_XMMaskX@@3UXMVECTORI32@@B DD 0ffffffffH		; g_XMMaskX
	DD	00H
	DD	00H
	DD	00H
;	COMDAT ?g_XMMask3@@3UXMVECTORI32@@B
.rdata	SEGMENT
?g_XMMask3@@3UXMVECTORI32@@B DD 0ffffffffH		; g_XMMask3
	DD	0ffffffffH
	DD	0ffffffffH
	DD	00H
;	COMDAT ?g_XMNegate3@@3UXMVECTORI32@@B
.rdata	SEGMENT
?g_XMNegate3@@3UXMVECTORI32@@B DD 080000000H		; g_XMNegate3
	DD	080000000H
	DD	080000000H
	DD	00H
;	COMDAT ?g_XMNegativeZero@@3UXMVECTORI32@@B
.rdata	SEGMENT
?g_XMNegativeZero@@3UXMVECTORI32@@B DD 080000000H	; g_XMNegativeZero
	DD	080000000H
	DD	080000000H
	DD	080000000H
;	COMDAT ?g_XMNegIdentityR3@@3UXMVECTORF32@@B
.rdata	SEGMENT
?g_XMNegIdentityR3@@3UXMVECTORF32@@B DD 000000000r ; 0	; g_XMNegIdentityR3
	DD	000000000r			; 0
	DD	000000000r			; 0
	DD	0bf800000r			; -1
;	COMDAT ?g_XMNegIdentityR2@@3UXMVECTORF32@@B
.rdata	SEGMENT
?g_XMNegIdentityR2@@3UXMVECTORF32@@B DD 000000000r ; 0	; g_XMNegIdentityR2
	DD	000000000r			; 0
	DD	0bf800000r			; -1
	DD	000000000r			; 0
;	COMDAT ?g_XMNegIdentityR1@@3UXMVECTORF32@@B
.rdata	SEGMENT
?g_XMNegIdentityR1@@3UXMVECTORF32@@B DD 000000000r ; 0	; g_XMNegIdentityR1
	DD	0bf800000r			; -1
	DD	000000000r			; 0
	DD	000000000r			; 0
;	COMDAT ?g_XMNegIdentityR0@@3UXMVECTORF32@@B
.rdata	SEGMENT
?g_XMNegIdentityR0@@3UXMVECTORF32@@B DD 0bf800000r ; -1	; g_XMNegIdentityR0
	DD	000000000r			; 0
	DD	000000000r			; 0
	DD	000000000r			; 0
;	COMDAT ?g_XMIdentityR3@@3UXMVECTORF32@@B
.rdata	SEGMENT
?g_XMIdentityR3@@3UXMVECTORF32@@B DD 000000000r	; 0	; g_XMIdentityR3
	DD	000000000r			; 0
	DD	000000000r			; 0
	DD	03f800000r			; 1
;	COMDAT ?g_XMIdentityR2@@3UXMVECTORF32@@B
.rdata	SEGMENT
?g_XMIdentityR2@@3UXMVECTORF32@@B DD 000000000r	; 0	; g_XMIdentityR2
	DD	000000000r			; 0
	DD	03f800000r			; 1
	DD	000000000r			; 0
;	COMDAT ?g_XMIdentityR1@@3UXMVECTORF32@@B
.rdata	SEGMENT
?g_XMIdentityR1@@3UXMVECTORF32@@B DD 000000000r	; 0	; g_XMIdentityR1
	DD	03f800000r			; 1
	DD	000000000r			; 0
	DD	000000000r			; 0
;	COMDAT ?g_XMIdentityR0@@3UXMVECTORF32@@B
.rdata	SEGMENT
?g_XMIdentityR0@@3UXMVECTORF32@@B DD 03f800000r	; 1	; g_XMIdentityR0
	DD	000000000r			; 0
	DD	000000000r			; 0
	DD	000000000r			; 0
;	COMDAT ?g_XMPiConstants0@@3UXMVECTORF32@@B
.rdata	SEGMENT
?g_XMPiConstants0@@3UXMVECTORF32@@B DD 040490fdbr ; 3.14159 ; g_XMPiConstants0
	DD	040c90fdbr			; 6.28319
	DD	03ea2f983r			; 0.31831
	DD	03e22f983r			; 0.159155
;	COMDAT ?g_XMASinEstConstants@@3UXMVECTORF32@@B
.rdata	SEGMENT
?g_XMASinEstConstants@@3UXMVECTORF32@@B DD 03f800001r ; 1 ; g_XMASinEstConstants
	DD	03fc90fdbr			; 1.5708
	DD	000000000r			; 0
	DD	000000000r			; 0
;	COMDAT ?g_XMASinEstCoefficients@@3UXMVECTORF32@@B
.rdata	SEGMENT
?g_XMASinEstCoefficients@@3UXMVECTORF32@@B DD 0bfae4ee5r ; -1.36178 ; g_XMASinEstCoefficients
	DD	0401849a5r			; 2.37949
	DD	0bf4ee811r			; -0.808229
	DD	03e8e8fb5r			; 0.27844
;	COMDAT ?g_XMATanEstCoefficients@@3UXMVECTORF32@@B
.rdata	SEGMENT
?g_XMATanEstCoefficients@@3UXMVECTORF32@@B DD 03f44dc79r ; 0.768989 ; g_XMATanEstCoefficients
	DD	03f8d6834r			; 1.10474
	DD	03f5dbe43r			; 0.866184
	DD	03fc90fdbr			; 1.5708
;	COMDAT ?g_XMTanEstCoefficients@@3UXMVECTORF32@@B
.rdata	SEGMENT
?g_XMTanEstCoefficients@@3UXMVECTORF32@@B DD 0401ef9dbr ; 2.484 ; g_XMTanEstCoefficients
	DD	0be482f23r			; -0.195492
	DD	0401de9e6r			; 2.4674
	DD	03ea2f983r			; 0.31831
;	COMDAT ?g_XMCosEstCoefficients@@3UXMVECTORF32@@B
.rdata	SEGMENT
?g_XMCosEstCoefficients@@3UXMVECTORF32@@B DD 03f800000r ; 1 ; g_XMCosEstCoefficients
	DD	0befd9e41r			; -0.495348
	DD	03d1eda81r			; 0.0387826
	DD	0ba72600cr			; -0.000924588
;	COMDAT ?g_XMSinEstCoefficients@@3UXMVECTORF32@@B
.rdata	SEGMENT
?g_XMSinEstCoefficients@@3UXMVECTORF32@@B DD 03f800000r ; 1 ; g_XMSinEstCoefficients
	DD	0be2a84b5r			; -0.166522
	DD	03c0658eer			; 0.00819991
	DD	0b92951der			; -0.000161476
;	COMDAT ?g_XMATanCoefficients2@@3UXMVECTORF32@@B
.rdata	SEGMENT
?g_XMATanCoefficients2@@3UXMVECTORF32@@B DD 03d70f0f1r ; 0.0588235 ; g_XMATanCoefficients2
	DD	03d579436r			; 0.0526316
	DD	03d430c31r			; 0.047619
	DD	03d321643r			; 0.0434783
;	COMDAT ?g_XMATanCoefficients1@@3UXMVECTORF32@@B
.rdata	SEGMENT
?g_XMATanCoefficients1@@3UXMVECTORF32@@B DD 03de38e39r ; 0.111111 ; g_XMATanCoefficients1
	DD	03dba2e8cr			; 0.0909091
	DD	03d9d89d9r			; 0.0769231
	DD	03d888889r			; 0.0666667
;	COMDAT ?g_XMATanCoefficients0@@3UXMVECTORF32@@B
.rdata	SEGMENT
?g_XMATanCoefficients0@@3UXMVECTORF32@@B DD 03f800000r ; 1 ; g_XMATanCoefficients0
	DD	03eaaaaabr			; 0.333333
	DD	03e4ccccdr			; 0.2
	DD	03e124925r			; 0.142857
;	COMDAT ?g_XMASinCoefficients2@@3UXMVECTORF32@@B
.rdata	SEGMENT
?g_XMASinCoefficients2@@3UXMVECTORF32@@B DD 0bfaf4418r ; -1.36927 ; g_XMASinCoefficients2
	DD	0c08f6ad9r			; -4.48179
	DD	03fb58485r			; 1.41811
	DD	040af6ad8r			; 5.48179
;	COMDAT ?g_XMASinCoefficients1@@3UXMVECTORF32@@B
.rdata	SEGMENT
?g_XMASinCoefficients1@@3UXMVECTORF32@@B DD 03f1dd7b6r ; 0.616573 ; g_XMASinCoefficients1
	DD	0408980bdr			; 4.29697
	DD	0bf983f2fr			; -1.18943
	DD	0c0d1360er			; -6.53785
;	COMDAT ?g_XMASinCoefficients0@@3UXMVECTORF32@@B
.rdata	SEGMENT
?g_XMASinCoefficients0@@3UXMVECTORF32@@B DD 0bd6dd42dr ; -0.0580637 ; g_XMASinCoefficients0
	DD	0bed65553r			; -0.41862
	DD	03e663246r			; 0.224801
	DD	0400b1889r			; 2.17337
;	COMDAT ?g_XMTanCoefficients2@@3UXMVECTORF32@@B
.rdata	SEGMENT
?g_XMTanCoefficients2@@3UXMVECTORF32@@B DD 03a1aac12r ; 0.000590027 ; g_XMTanCoefficients2
	DD	0397abeb9r			; 0.000239129
	DD	038cb3f0cr			; 9.69154e-005
	DD	03824bec9r			; 3.92783e-005
;	COMDAT ?g_XMTanCoefficients1@@3UXMVECTORF32@@B
.rdata	SEGMENT
?g_XMTanCoefficients1@@3UXMVECTORF32@@B DD 03cb327a4r ; 0.0218695 ; g_XMTanCoefficients1
	DD	03c11371br			; 0.00886324
	DD	03b6b69e9r			; 0.00359213
	DD	03abed1b3r			; 0.00145583
;	COMDAT ?g_XMTanCoefficients0@@3UXMVECTORF32@@B
.rdata	SEGMENT
?g_XMTanCoefficients0@@3UXMVECTORF32@@B DD 03f800000r ; 1 ; g_XMTanCoefficients0
	DD	03eaaaaabr			; 0.333333
	DD	03e088889r			; 0.133333
	DD	03d5d0dd1r			; 0.0539683
;	COMDAT ?g_XMCosCoefficients2@@3UXMVECTORF32@@B
.rdata	SEGMENT
?g_XMCosCoefficients2@@3UXMVECTORF32@@B DD 029573f9fr ; 4.77948e-014 ; g_XMCosCoefficients2
	DD	0a53413c3r			; -1.56192e-016
	DD	020f2a15dr			; 4.11032e-019
	DD	09c8671cbr			; -8.89679e-022
;	COMDAT ?g_XMCosCoefficients1@@3UXMVECTORF32@@B
.rdata	SEGMENT
?g_XMCosCoefficients1@@3UXMVECTORF32@@B DD 037d00d01r ; 2.48016e-005 ; g_XMCosCoefficients1
	DD	0b493f27er			; -2.75573e-007
	DD	0310f76c8r			; 2.08768e-009
	DD	0ad49cba5r			; -1.14707e-011
;	COMDAT ?g_XMCosCoefficients0@@3UXMVECTORF32@@B
.rdata	SEGMENT
?g_XMCosCoefficients0@@3UXMVECTORF32@@B DD 03f800000r ; 1 ; g_XMCosCoefficients0
	DD	0bf000000r			; -0.5
	DD	03d2aaaabr			; 0.0416667
	DD	0bab60b61r			; -0.00138889
;	COMDAT ?g_XMSinCoefficients2@@3UXMVECTORF32@@B
.rdata	SEGMENT
?g_XMSinCoefficients2@@3UXMVECTORF32@@B DD 0274a963cr ; 2.81146e-015 ; g_XMSinCoefficients2
	DD	0a317a4dar			; -8.22064e-018
	DD	01eb8dc78r			; 1.95729e-020
	DD	09a3b0da1r			; -3.86817e-023
;	COMDAT ?g_XMSinCoefficients1@@3UXMVECTORF32@@B
.rdata	SEGMENT
?g_XMSinCoefficients1@@3UXMVECTORF32@@B DD 03638ef1dr ; 2.75573e-006 ; g_XMSinCoefficients1
	DD	0b2d7322br			; -2.50521e-008
	DD	02f309231r			; 1.6059e-010
	DD	0ab573f9fr			; -7.64716e-013
;	COMDAT ?g_XMSinCoefficients0@@3UXMVECTORF32@@B
.rdata	SEGMENT
?g_XMSinCoefficients0@@3UXMVECTORF32@@B DD 03f800000r ; 1 ; g_XMSinCoefficients0
	DD	0be2aaaabr			; -0.166667
	DD	03c088889r			; 0.00833333
	DD	0b9500d01r			; -0.000198413
;	COMDAT D3DTESSPRIMITIVEVERTEXCOUNT
.rdata	SEGMENT
D3DTESSPRIMITIVEVERTEXCOUNT DD 00H
	DD	00H
	DD	00H
	DD	00H
	DD	02H
	DD	00H
	DD	01H
	DD	01H
	DD	03H
	DD	00H
	DD	01H
	DD	02H
	DD	01H
	DD	02H
	DD	00H
	DD	00H
	DD	00H
	DD	00H
	DD	00H
	DD	00H
	DD	00H
	DD	00H
	DD	00H
	DD	00H
	DD	00H
	DD	00H
	DD	04H
	DD	00H
	DD	00H
	DD	00H
	DD	00H
	DD	00H
	DD	01H
	DD	00H
	DD	01H
	DD	00H
	DD	01H
	DD	00H
;	COMDAT D3DPRIMITIVEVERTEXCOUNT
.rdata	SEGMENT
D3DPRIMITIVEVERTEXCOUNT DD 00H
	DD	00H
	DD	01H
	DD	00H
	DD	02H
	DD	00H
	DD	01H
	DD	01H
	DD	03H
	DD	00H
	DD	01H
	DD	02H
	DD	01H
	DD	02H
	DD	00H
	DD	00H
	DD	03H
	DD	00H
	DD	00H
	DD	00H
	DD	00H
	DD	00H
	DD	00H
	DD	00H
	DD	00H
	DD	00H
	DD	04H
	DD	00H
;	COMDAT __C1_11886
.XBLD$W	SEGMENT
__C1_11886 DW	04331H
	DW	00H
	DW	00H
	DW	00H
	DW	010H
	DW	00H
	DW	02e6eH
	DW	04400H
;	COMDAT __C2_11886
.XBLD$W	SEGMENT
__C2_11886 DB	'C2', 00H, 00H, 00H, 00H, 00H, 00H, 00H, 010H, 00H, 00H, '.'
	DB	'nD', 00H
; Function compile flags: /Ogsu

	.code

D3DDevice_BeginScene PROC NEAR				; COMDAT

; Begin code for function: D3DDevice_BeginScene
; File c:\program files (x86)\microsoft xbox 360 sdk\include\xbox\d3d9.h
; Line 2308
	blr
; End code for function: D3DDevice_BeginScene
D3DDevice_BeginScene ENDP

; Function compile flags: /Ogsu

	.code

D3DDevice_EndScene PROC NEAR				; COMDAT

; Begin code for function: D3DDevice_EndScene
; Line 2309
	blr
; End code for function: D3DDevice_EndScene
D3DDevice_EndScene ENDP

PUBLIC	?Present@D3DDevice@@QAAJPBUtagRECT@@0PAX1@Z	; D3DDevice::Present
EXTRN	D3DDevice_Present:PROC
;	COMDAT .pdata
.pdata	SEGMENT
$T76336	DD	?Present@D3DDevice@@QAAJPBUtagRECT@@0PAX1@Z
	DD	040000903H
; Function compile flags: /Ogsu

	.code

?Present@D3DDevice@@QAAJPBUtagRECT@@0PAX1@Z PROC NEAR	; D3DDevice::Present, COMDAT

; Begin code for function: ?Present@D3DDevice@@QAAJPBUtagRECT@@0PAX1@Z
; Line 3835
	mflr         r12
	stw          r12,-8(r1)
	stwu         r1,-60h(r1)
.endprolog
$M76334:
	bl           D3DDevice_Present
	li           r3,0
	addi         r1,r1,96		; 60h
	lwz          r12,-8(r1)
	mtlr         r12
	blr
$M76335:
; End code for function: ?Present@D3DDevice@@QAAJPBUtagRECT@@0PAX1@Z
?Present@D3DDevice@@QAAJPBUtagRECT@@0PAX1@Z ENDP
							; D3DDevice::Present
PUBLIC	?BeginScene@D3DDevice@@QAAJXZ			; D3DDevice::BeginScene
; Function compile flags: /Ogsu

	.code

?BeginScene@D3DDevice@@QAAJXZ PROC NEAR			; D3DDevice::BeginScene, COMDAT

; Begin code for function: ?BeginScene@D3DDevice@@QAAJXZ
; Line 3857
	li           r3,0
	blr
; End code for function: ?BeginScene@D3DDevice@@QAAJXZ
?BeginScene@D3DDevice@@QAAJXZ ENDP
							; D3DDevice::BeginScene
PUBLIC	?EndScene@D3DDevice@@QAAJXZ			; D3DDevice::EndScene
; Function compile flags: /Ogsu

	.code

?EndScene@D3DDevice@@QAAJXZ PROC NEAR			; D3DDevice::EndScene, COMDAT

; Begin code for function: ?EndScene@D3DDevice@@QAAJXZ
; Line 3858
	li           r3,0
	blr
; End code for function: ?EndScene@D3DDevice@@QAAJXZ
?EndScene@D3DDevice@@QAAJXZ ENDP
							; D3DDevice::EndScene
PUBLIC	?Clear@D3DDevice@@QAAJKPBU_D3DRECT@@KKMK@Z	; D3DDevice::Clear
EXTRN	D3DDevice_Clear:PROC
EXTRN	_fltused:PROC
;	COMDAT .pdata
.pdata	SEGMENT
$T76353	DD	?Clear@D3DDevice@@QAAJKPBU_D3DRECT@@KKMK@Z
	DD	040000a03H
; Function compile flags: /Ogsu

	.code

?Clear@D3DDevice@@QAAJKPBU_D3DRECT@@KKMK@Z PROC NEAR	; D3DDevice::Clear, COMDAT

; Begin code for function: ?Clear@D3DDevice@@QAAJKPBU_D3DRECT@@KKMK@Z
; Line 3859
	mflr         r12
	stw          r12,-8(r1)
	stwu         r1,-60h(r1)
.endprolog
$M76351:
	li           r10,0
	bl           D3DDevice_Clear
	li           r3,0
	addi         r1,r1,96		; 60h
	lwz          r12,-8(r1)
	mtlr         r12
	blr
$M76352:
; End code for function: ?Clear@D3DDevice@@QAAJKPBU_D3DRECT@@KKMK@Z
?Clear@D3DDevice@@QAAJKPBU_D3DRECT@@KKMK@Z ENDP
							; D3DDevice::Clear
PUBLIC	?DrawPrimitiveUP@D3DDevice@@QAAJW4_D3DPRIMITIVETYPE@@IPBXI@Z ; D3DDevice::DrawPrimitiveUP
EXTRN	D3DDevice_DrawVerticesUP:PROC
;	COMDAT .pdata
.pdata	SEGMENT
$T76359	DD	?DrawPrimitiveUP@D3DDevice@@QAAJW4_D3DPRIMITIVETYPE@@IPBXI@Z
	DD	040001103H
; Function compile flags: /Ogsu

	.code

?DrawPrimitiveUP@D3DDevice@@QAAJW4_D3DPRIMITIVETYPE@@IPBXI@Z PROC NEAR ; D3DDevice::DrawPrimitiveUP, COMDAT

; Begin code for function: ?DrawPrimitiveUP@D3DDevice@@QAAJW4_D3DPRIMITIVETYPE@@IPBXI@Z
; Line 3895
	mflr         r12
	stw          r12,-8(r1)
	stwu         r1,-60h(r1)
.endprolog
$M76357:
	lis          r11,D3DPRIMITIVEVERTEXCOUNT
	slwi         r10,r4,3
	addi         r11,r11,D3DPRIMITIVEVERTEXCOUNT
	addi         r9,r11,4
	lwzx         r8,r10,r11
	lwzx         r11,r10,r9
	mullw        r10,r8,r5
	add          r5,r10,r11
	bl           D3DDevice_DrawVerticesUP
	li           r3,0
	addi         r1,r1,96		; 60h
	lwz          r12,-8(r1)
	mtlr         r12
	blr
$M76358:
; End code for function: ?DrawPrimitiveUP@D3DDevice@@QAAJW4_D3DPRIMITIVETYPE@@IPBXI@Z
?DrawPrimitiveUP@D3DDevice@@QAAJW4_D3DPRIMITIVETYPE@@IPBXI@Z ENDP
							; D3DDevice::DrawPrimitiveUP
PUBLIC	?SetFVF@D3DDevice@@QAAJK@Z			; D3DDevice::SetFVF
EXTRN	D3DDevice_SetFVF:PROC
;	COMDAT .pdata
.pdata	SEGMENT
$T76365	DD	?SetFVF@D3DDevice@@QAAJK@Z
	DD	040000903H
; Function compile flags: /Ogsu

	.code

?SetFVF@D3DDevice@@QAAJK@Z PROC NEAR			; D3DDevice::SetFVF, COMDAT

; Begin code for function: ?SetFVF@D3DDevice@@QAAJK@Z
; Line 3901
	mflr         r12
	stw          r12,-8(r1)
	stwu         r1,-60h(r1)
.endprolog
$M76363:
	bl           D3DDevice_SetFVF
	li           r3,0
	addi         r1,r1,96		; 60h
	lwz          r12,-8(r1)
	mtlr         r12
	blr
$M76364:
; End code for function: ?SetFVF@D3DDevice@@QAAJK@Z
?SetFVF@D3DDevice@@QAAJK@Z ENDP
							; D3DDevice::SetFVF
PUBLIC	fabsf
; Function compile flags: /Ogsu

	.code

fabsf PROC NEAR						; COMDAT

; Begin code for function: fabsf
; File c:\program files (x86)\microsoft xbox 360 sdk\include\xbox\math.h
; Line 292
	fabs         fr1,fr1
	blr
; End code for function: fabsf
fabsf	ENDP

PUBLIC	ceilf
EXTRN	ceil:PROC
;	COMDAT .pdata
.pdata	SEGMENT
$T76373	DD	ceilf
	DD	040000903H
; Function compile flags: /Ogsu

	.code

ceilf PROC NEAR						; COMDAT

; Begin code for function: ceilf
; Line 304
	mflr         r12
	stw          r12,-8(r1)
	stwu         r1,-60h(r1)
.endprolog
$M76371:
	bl           ceil
	frsp         fr1,fr1
	addi         r1,r1,96		; 60h
	lwz          r12,-8(r1)
	mtlr         r12
	blr
$M76372:
; End code for function: ceilf
ceilf	ENDP

PUBLIC	sinf
EXTRN	sin:PROC
;	COMDAT .pdata
.pdata	SEGMENT
$T76379	DD	sinf
	DD	040000903H
; Function compile flags: /Ogsu

	.code

sinf PROC NEAR						; COMDAT

; Begin code for function: sinf
; Line 326
	mflr         r12
	stw          r12,-8(r1)
	stwu         r1,-60h(r1)
.endprolog
$M76377:
	bl           sin
	frsp         fr1,fr1
	addi         r1,r1,96		; 60h
	lwz          r12,-8(r1)
	mtlr         r12
	blr
$M76378:
; End code for function: sinf
sinf	ENDP

PUBLIC	?ceil@@YAMM@Z					; ceil
;	COMDAT .pdata
.pdata	SEGMENT
$T76388	DD	?ceil@@YAMM@Z
	DD	040000903H
; Function compile flags: /Ogsu

	.code

?ceil@@YAMM@Z PROC NEAR					; ceil, COMDAT

; Begin code for function: ?ceil@@YAMM@Z
; Line 402
	mflr         r12
	stw          r12,-8(r1)
	stwu         r1,-60h(r1)
.endprolog
$M76386:
	bl           ceil
	frsp         fr1,fr1
	addi         r1,r1,96		; 60h
	lwz          r12,-8(r1)
	mtlr         r12
	blr
$M76387:
; End code for function: ?ceil@@YAMM@Z
?ceil@@YAMM@Z ENDP
							; ceil
PUBLIC	?swprintf@@YAHPA_WPB_WZZ			; swprintf
EXTRN	_vswprintf:PROC
;	COMDAT .pdata
; File c:\program files (x86)\microsoft xbox 360 sdk\include\xbox\swprintf.inl
.pdata	SEGMENT
$T76394	DD	?swprintf@@YAHPA_WPB_WZZ
	DD	040001309H
; Function compile flags: /Ogsu

	.code
_Arglist$ = 80						; size = 4
_Format$ = 124						; size = 4

?swprintf@@YAHPA_WPB_WZZ PROC NEAR			; swprintf, COMDAT

; Begin code for function: ?swprintf@@YAHPA_WPB_WZZ
; Line 76
	mflr         r12
	stw          r12,-8(r1)
	std          r5,20h(r1)
	std          r6,28h(r1)
	std          r7,30h(r1)
	std          r8,38h(r1)
	std          r9,40h(r1)
	std          r10,48h(r1)
	stwu         r1,-60h(r1)
.endprolog
$M76392:
; Line 78
	stw          r4,_Format$(r1)		; 124 (7Ch)
	addi         r11,r1,_Arglist$
	addi         r10,r1,_Format$+4
; Line 79
	stw          r10,0(r11)
	lwz          r5,_Arglist$(r1)		; 80 (50h)
	bl           _vswprintf
; Line 82
	addi         r1,r1,96		; 60h
	lwz          r12,-8(r1)
	mtlr         r12
	blr
$M76393:
; End code for function: ?swprintf@@YAHPA_WPB_WZZ
?swprintf@@YAHPA_WPB_WZZ ENDP
							; swprintf
PUBLIC	?NullQuicklaunch1@@YAXXZ			; NullQuicklaunch1
; Function compile flags: /Ogsu

	.code

?NullQuicklaunch1@@YAXXZ PROC NEAR			; NullQuicklaunch1, COMDAT

; Begin code for function: ?NullQuicklaunch1@@YAXXZ
; File c:\users\t3fur\desktop\viper engine 1.4\trainer\common.h
; Line 45
	blr
; End code for function: ?NullQuicklaunch1@@YAXXZ
?NullQuicklaunch1@@YAXXZ ENDP
							; NullQuicklaunch1
PUBLIC	?NullQuicklaunch2@@YAXXZ			; NullQuicklaunch2
; Function compile flags: /Ogsu

	.code

?NullQuicklaunch2@@YAXXZ PROC NEAR			; NullQuicklaunch2, COMDAT

; Begin code for function: ?NullQuicklaunch2@@YAXXZ
; Line 48
	blr
; End code for function: ?NullQuicklaunch2@@YAXXZ
?NullQuicklaunch2@@YAXXZ ENDP
							; NullQuicklaunch2
PUBLIC	?NullQuicklaunch3@@YAXXZ			; NullQuicklaunch3
; Function compile flags: /Ogsu

	.code

?NullQuicklaunch3@@YAXXZ PROC NEAR			; NullQuicklaunch3, COMDAT

; Begin code for function: ?NullQuicklaunch3@@YAXXZ
; Line 51
	blr
; End code for function: ?NullQuicklaunch3@@YAXXZ
?NullQuicklaunch3@@YAXXZ ENDP
							; NullQuicklaunch3
PUBLIC	?NullQuicklaunch4@@YAXXZ			; NullQuicklaunch4
; Function compile flags: /Ogsu

	.code

?NullQuicklaunch4@@YAXXZ PROC NEAR			; NullQuicklaunch4, COMDAT

; Begin code for function: ?NullQuicklaunch4@@YAXXZ
; Line 54
	blr
; End code for function: ?NullQuicklaunch4@@YAXXZ
?NullQuicklaunch4@@YAXXZ ENDP
							; NullQuicklaunch4
PUBLIC	?NullQuicklaunch5@@YAXXZ			; NullQuicklaunch5
; Function compile flags: /Ogsu

	.code

?NullQuicklaunch5@@YAXXZ PROC NEAR			; NullQuicklaunch5, COMDAT

; Begin code for function: ?NullQuicklaunch5@@YAXXZ
; Line 57
	blr
; End code for function: ?NullQuicklaunch5@@YAXXZ
?NullQuicklaunch5@@YAXXZ ENDP
							; NullQuicklaunch5
PUBLIC	?NullQuicklaunch6@@YAXXZ			; NullQuicklaunch6
; Function compile flags: /Ogsu

	.code

?NullQuicklaunch6@@YAXXZ PROC NEAR			; NullQuicklaunch6, COMDAT

; Begin code for function: ?NullQuicklaunch6@@YAXXZ
; Line 60
	blr
; End code for function: ?NullQuicklaunch6@@YAXXZ
?NullQuicklaunch6@@YAXXZ ENDP
							; NullQuicklaunch6
PUBLIC	?NullQuicklaunch7@@YAXXZ			; NullQuicklaunch7
; Function compile flags: /Ogsu

	.code

?NullQuicklaunch7@@YAXXZ PROC NEAR			; NullQuicklaunch7, COMDAT

; Begin code for function: ?NullQuicklaunch7@@YAXXZ
; Line 63
	blr
; End code for function: ?NullQuicklaunch7@@YAXXZ
?NullQuicklaunch7@@YAXXZ ENDP
							; NullQuicklaunch7
PUBLIC	?NullQuicklaunch8@@YAXXZ			; NullQuicklaunch8
; Function compile flags: /Ogsu

	.code

?NullQuicklaunch8@@YAXXZ PROC NEAR			; NullQuicklaunch8, COMDAT

; Begin code for function: ?NullQuicklaunch8@@YAXXZ
; Line 66
	blr
; End code for function: ?NullQuicklaunch8@@YAXXZ
?NullQuicklaunch8@@YAXXZ ENDP
							; NullQuicklaunch8
PUBLIC	?ResolveFunct@@YAKPADK@Z			; ResolveFunct
EXTRN	XexGetProcedureAddress:PROC
EXTRN	XexGetModuleHandle:PROC
;	COMDAT .pdata
.pdata	SEGMENT
$T76416	DD	?ResolveFunct@@YAKPADK@Z
	DD	040001804H
; Function compile flags: /Ogsu

	.code
Ptr2$ = 80						; size = 4
hand$ = 84						; size = 4

?ResolveFunct@@YAKPADK@Z PROC NEAR			; ResolveFunct, COMDAT

; Begin code for function: ?ResolveFunct@@YAKPADK@Z
; Line 69
	mflr         r12
	stw          r12,-8(r1)
	std          r31,-10h(r1)
	stwu         r1,-70h(r1)
.endprolog
$M76414:
; Line 71
	li           r11,0
	mr           r31,r4
; Line 72
	stw          r11,Ptr2$(r1)		; 80 (50h)
	addi         r4,r1,hand$
	bl           XexGetModuleHandle
; Line 73
	cmplwi       r3,0
	bne          $LN1@ResolveFun
; Line 74
	addi         r5,r1,Ptr2$
	lwz          r3,hand$(r1)		; 84 (54h)
	mr           r4,r31
	bl           XexGetProcedureAddress
; Line 75
	lwz          r3,Ptr2$(r1)		; 80 (50h)
	cmplwi       cr6,r3,0
; Line 76
	bne          cr6,$LN3@ResolveFun
$LN1@ResolveFun:
; Line 78
	li           r3,0
$LN3@ResolveFun:
; Line 79
	addi         r1,r1,112		; 70h
	lwz          r12,-8(r1)
	mtlr         r12
	ld           r31,-10h(r1)
	blr
$M76415:
; End code for function: ?ResolveFunct@@YAKPADK@Z
?ResolveFunct@@YAKPADK@Z ENDP
							; ResolveFunct
PUBLIC	??_C@_1BA@GFPHIAOD@T?$AAe?$AAa?$AAm?$AAX?$AAP?$AAG?$AA?$AA?$AA@ ; `string'
PUBLIC	??_C@_1CO@FKLDOAED@T?$AAi?$AAt?$AAl?$AAe?$AAI?$AAD?$AA?5?$AAN?$AAo?$AAt?$AA?5?$AAC?$AAo?$AAm?$AAp?$AAa?$AAt?$AAi?$AAb?$AAl?$AAe?$AA?$AA?$AA@ ; `string'
PUBLIC	?notwork@@YAXXZ					; notwork
EXTRN	XShowMessageBoxUI:PROC
;	COMDAT .pdata
.pdata	SEGMENT
$T76422	DD	?notwork@@YAXXZ
	DD	040001903H
;	COMDAT ??_C@_1BA@GFPHIAOD@T?$AAe?$AAa?$AAm?$AAX?$AAP?$AAG?$AA?$AA?$AA@
.rdata	SEGMENT
??_C@_1BA@GFPHIAOD@T?$AAe?$AAa?$AAm?$AAX?$AAP?$AAG?$AA?$AA?$AA@ DB 00H, 'T'
	DB	00H, 'e', 00H, 'a', 00H, 'm', 00H, 'X', 00H, 'P', 00H, 'G', 00H
	DB	00H						; `string'
;	COMDAT ??_C@_1CO@FKLDOAED@T?$AAi?$AAt?$AAl?$AAe?$AAI?$AAD?$AA?5?$AAN?$AAo?$AAt?$AA?5?$AAC?$AAo?$AAm?$AAp?$AAa?$AAt?$AAi?$AAb?$AAl?$AAe?$AA?$AA?$AA@
.rdata	SEGMENT
??_C@_1CO@FKLDOAED@T?$AAi?$AAt?$AAl?$AAe?$AAI?$AAD?$AA?5?$AAN?$AAo?$AAt?$AA?5?$AAC?$AAo?$AAm?$AAp?$AAa?$AAt?$AAi?$AAb?$AAl?$AAe?$AA?$AA?$AA@ DB 00H
	DB	'T', 00H, 'i', 00H, 't', 00H, 'l', 00H, 'e', 00H, 'I', 00H, 'D'
	DB	00H, ' ', 00H, 'N', 00H, 'o', 00H, 't', 00H, ' ', 00H, 'C', 00H
	DB	'o', 00H, 'm', 00H, 'p', 00H, 'a', 00H, 't', 00H, 'i', 00H, 'b'
	DB	00H, 'l', 00H, 'e', 00H, 00H			; `string'
; Function compile flags: /Ogsu

	.code

?notwork@@YAXXZ	PROC NEAR				; notwork, COMDAT

; Begin code for function: ?notwork@@YAXXZ
; Line 82
	mflr         r12
	stw          r12,-8(r1)
	stwu         r1,-60h(r1)
.endprolog
$M76420:
; Line 83
	lis          r9,?g_strButtons@@3PAPB_WA
	lis          r8,??_C@_1CO@FKLDOAED@T?$AAi?$AAt?$AAl?$AAe?$AAI?$AAD?$AA?5?$AAN?$AAo?$AAt?$AA?5?$AAC?$AAo?$AAm?$AAp?$AAa?$AAt?$AAi?$AAb?$AAl?$AAe?$AA?$AA?$AA@
	lis          r6,??_C@_1BA@GFPHIAOD@T?$AAe?$AAa?$AAm?$AAX?$AAP?$AAG?$AA?$AA?$AA@
	lis          r11,?g_xol@@3U_XOVERLAPPED@@A
	lis          r10,?g_mb_result@@3U_MESSAGEBOX_RESULT@@A
	addi         r11,r11,?g_xol@@3U_XOVERLAPPED@@A
	addi         r7,r9,?g_strButtons@@3PAPB_WA
	addi         r5,r8,??_C@_1CO@FKLDOAED@T?$AAi?$AAt?$AAl?$AAe?$AAI?$AAD?$AA?5?$AAN?$AAo?$AAt?$AA?5?$AAC?$AAo?$AAm?$AAp?$AAa?$AAt?$AAi?$AAb?$AAl?$AAe?$AA?$AA?$AA@
	stw          r11,54h(r1)
	addi         r4,r6,??_C@_1BA@GFPHIAOD@T?$AAe?$AAa?$AAm?$AAX?$AAP?$AAG?$AA?$AA?$AA@
	addi         r10,r10,?g_mb_result@@3U_MESSAGEBOX_RESULT@@A
	lis          r9,1
	li           r8,0
	li           r6,1
	li           r3,0
	bl           XShowMessageBoxUI
	lis          r11,?Prompt@@3KA
	stw          r3,?Prompt@@3KA(r11)
; Line 84
	addi         r1,r1,96		; 60h
	lwz          r12,-8(r1)
	mtlr         r12
	blr
$M76421:
; End code for function: ?notwork@@YAXXZ
?notwork@@YAXXZ ENDP
							; notwork
PUBLIC	SetDWORD
EXTRN	MmIsAddressValid:PROC
;	COMDAT .pdata
.pdata	SEGMENT
$T76428	DD	SetDWORD
	DD	040001d04H
; Function compile flags: /Ogsu

	.code

SetDWORD	 PROC NEAR					; COMDAT

; Begin code for function: SetDWORD
; Line 107
	mflr         r12
	stw          r12,-8(r1)
	std          r31,-10h(r1)
	stwu         r1,-60h(r1)
.endprolog
$M76426:
	stw          r4,value$(r1)		; 124 (7Ch)
	mr           r31,r3
; Line 108
	bl           MmIsAddressValid
	cmplwi       r3,0
	beq          $LN1@SetDWORD
; Line 111
	lis          r11,?KrnlType@@3KA
	lwz          r11,?KrnlType@@3KA(r11)
	cmplwi       cr6,r11,0
	bne          cr6,$LN2@SetDWORD
; Line 112
	lwz          r11,value$(r1)		; 124 (7Ch)
	stw          r11,0(r31)
; Line 113
	b            $LN1@SetDWORD
$LN2@SetDWORD:
; Line 114
	lis          r11,?DmSetMemoryD@@3P6AJPAXKPBXPAK@ZA
	li           r6,0
	addi         r5,r1,value$
	li           r4,4
	mr           r3,r31
	lwz          r11,?DmSetMemoryD@@3P6AJPAXKPBXPAK@ZA(r11)
	mtctr        r11
	bctrl
$LN1@SetDWORD:
; Line 115
	addi         r1,r1,96		; 60h
	lwz          r12,-8(r1)
	mtlr         r12
	ld           r31,-10h(r1)
	blr
$M76427:
; End code for function: SetDWORD
SetDWORD ENDP

PUBLIC	GetDWORD
;	COMDAT .pdata
.pdata	SEGMENT
$T76434	DD	GetDWORD
	DD	040001c04H
; Function compile flags: /Ogsu

	.code
temp$ = 80						; size = 4

GetDWORD	 PROC NEAR					; COMDAT

; Begin code for function: GetDWORD
; Line 118
	mflr         r12
	stw          r12,-8(r1)
	std          r31,-10h(r1)
	stwu         r1,-70h(r1)
.endprolog
$M76432:
	mr           r31,r3
; Line 121
	bl           MmIsAddressValid
	cmplwi       r3,0
	beq          $LN4@GetDWORD
$LN3@GetDWORD:
; Line 124
	lis          r11,?KrnlType@@3KA
	lwz          r11,?KrnlType@@3KA(r11)
	cmplwi       cr6,r11,0
	bne          cr6,$LN2@GetDWORD
; Line 125
	lwz          r3,0(r31)
; Line 126
	b            $LN4@GetDWORD
$LN2@GetDWORD:
; Line 127
	lis          r11,?DmGetMemoryD@@3P6AJPBXKPAXPAK@ZA
	li           r6,0
	addi         r5,r1,temp$
	li           r4,4
	mr           r3,r31
	lwz          r11,?DmGetMemoryD@@3P6AJPBXKPAXPAK@ZA(r11)
	mtctr        r11
	bctrl
	lwz          r3,temp$(r1)		; 80 (50h)
; Line 129
$LN4@GetDWORD:
; Line 130
	addi         r1,r1,112		; 70h
	lwz          r12,-8(r1)
	mtlr         r12
	ld           r31,-10h(r1)
	blr
$M76433:
; End code for function: GetDWORD
GetDWORD ENDP

PUBLIC	SetBYTE
;	COMDAT .pdata
.pdata	SEGMENT
$T76440	DD	SetBYTE
	DD	040001d04H
; Function compile flags: /Ogsu

	.code

SetBYTE	PROC NEAR					; COMDAT

; Begin code for function: SetBYTE
; Line 134
	mflr         r12
	stw          r12,-8(r1)
	std          r31,-10h(r1)
	stwu         r1,-60h(r1)
.endprolog
$M76438:
	stb          r4,value$(r1)		; 127 (7Fh)
	mr           r31,r3
; Line 135
	bl           MmIsAddressValid
	cmplwi       r3,0
	beq          $LN1@SetBYTE
; Line 138
	lis          r11,?KrnlType@@3KA
	lwz          r11,?KrnlType@@3KA(r11)
	cmplwi       cr6,r11,0
	bne          cr6,$LN2@SetBYTE
; Line 139
	lbz          r11,value$(r1)		; 127 (7Fh)
	stb          r11,0(r31)
; Line 140
	b            $LN1@SetBYTE
$LN2@SetBYTE:
; Line 141
	lis          r11,?DmSetMemoryD@@3P6AJPAXKPBXPAK@ZA
	li           r6,0
	addi         r5,r1,value$
	li           r4,1
	mr           r3,r31
	lwz          r11,?DmSetMemoryD@@3P6AJPAXKPBXPAK@ZA(r11)
	mtctr        r11
	bctrl
$LN1@SetBYTE:
; Line 142
	addi         r1,r1,96		; 60h
	lwz          r12,-8(r1)
	mtlr         r12
	ld           r31,-10h(r1)
	blr
$M76439:
; End code for function: SetBYTE
SetBYTE	ENDP

PUBLIC	GetBYTE
;	COMDAT .pdata
.pdata	SEGMENT
$T76446	DD	GetBYTE
	DD	040001c04H
; Function compile flags: /Ogsu

	.code
temp$ = 80						; size = 1

GetBYTE	PROC NEAR					; COMDAT

; Begin code for function: GetBYTE
; Line 145
	mflr         r12
	stw          r12,-8(r1)
	std          r31,-10h(r1)
	stwu         r1,-70h(r1)
.endprolog
$M76444:
	mr           r31,r3
; Line 148
	bl           MmIsAddressValid
	cmplwi       r3,0
	beq          $LN4@GetBYTE
$LN3@GetBYTE:
; Line 151
	lis          r11,?KrnlType@@3KA
	lwz          r11,?KrnlType@@3KA(r11)
	cmplwi       cr6,r11,0
	bne          cr6,$LN2@GetBYTE
; Line 152
	lbz          r3,0(r31)
; Line 153
	b            $LN4@GetBYTE
$LN2@GetBYTE:
; Line 154
	lis          r11,?DmGetMemoryD@@3P6AJPBXKPAXPAK@ZA
	li           r6,0
	addi         r5,r1,temp$
	li           r4,1
	mr           r3,r31
	lwz          r11,?DmGetMemoryD@@3P6AJPBXKPAXPAK@ZA(r11)
	mtctr        r11
	bctrl
	lbz          r3,temp$(r1)		; 80 (50h)
; Line 156
$LN4@GetBYTE:
; Line 157
	addi         r1,r1,112		; 70h
	lwz          r12,-8(r1)
	mtlr         r12
	ld           r31,-10h(r1)
	blr
$M76445:
; End code for function: GetBYTE
GetBYTE	ENDP

PUBLIC	SetWORD
;	COMDAT .pdata
.pdata	SEGMENT
$T76452	DD	SetWORD
	DD	040001d04H
; Function compile flags: /Ogsu

	.code

SetWORD	PROC NEAR					; COMDAT

; Begin code for function: SetWORD
; Line 161
	mflr         r12
	stw          r12,-8(r1)
	std          r31,-10h(r1)
	stwu         r1,-60h(r1)
.endprolog
$M76450:
	sth          r4,value$(r1)		; 126 (7Eh)
	mr           r31,r3
; Line 162
	bl           MmIsAddressValid
	cmplwi       r3,0
	beq          $LN1@SetWORD
; Line 165
	lis          r11,?KrnlType@@3KA
	lwz          r11,?KrnlType@@3KA(r11)
	cmplwi       cr6,r11,0
	bne          cr6,$LN2@SetWORD
; Line 166
	lhz          r11,value$(r1)		; 126 (7Eh)
	sth          r11,0(r31)
; Line 167
	b            $LN1@SetWORD
$LN2@SetWORD:
; Line 168
	lis          r11,?DmSetMemoryD@@3P6AJPAXKPBXPAK@ZA
	li           r6,0
	addi         r5,r1,value$
	li           r4,2
	mr           r3,r31
	lwz          r11,?DmSetMemoryD@@3P6AJPAXKPBXPAK@ZA(r11)
	mtctr        r11
	bctrl
$LN1@SetWORD:
; Line 169
	addi         r1,r1,96		; 60h
	lwz          r12,-8(r1)
	mtlr         r12
	ld           r31,-10h(r1)
	blr
$M76451:
; End code for function: SetWORD
SetWORD	ENDP

PUBLIC	GetWORD
;	COMDAT .pdata
.pdata	SEGMENT
$T76458	DD	GetWORD
	DD	040001c04H
; Function compile flags: /Ogsu

	.code
temp$ = 80						; size = 2

GetWORD	PROC NEAR					; COMDAT

; Begin code for function: GetWORD
; Line 172
	mflr         r12
	stw          r12,-8(r1)
	std          r31,-10h(r1)
	stwu         r1,-70h(r1)
.endprolog
$M76456:
	mr           r31,r3
; Line 175
	bl           MmIsAddressValid
	cmplwi       r3,0
	beq          $LN4@GetWORD
$LN3@GetWORD:
; Line 178
	lis          r11,?KrnlType@@3KA
	lwz          r11,?KrnlType@@3KA(r11)
	cmplwi       cr6,r11,0
	bne          cr6,$LN2@GetWORD
; Line 179
	lhz          r3,0(r31)
; Line 180
	b            $LN4@GetWORD
$LN2@GetWORD:
; Line 181
	lis          r11,?DmGetMemoryD@@3P6AJPBXKPAXPAK@ZA
	li           r6,0
	addi         r5,r1,temp$
	li           r4,2
	mr           r3,r31
	lwz          r11,?DmGetMemoryD@@3P6AJPBXKPAXPAK@ZA(r11)
	mtctr        r11
	bctrl
	lhz          r3,temp$(r1)		; 80 (50h)
; Line 183
$LN4@GetWORD:
; Line 184
	addi         r1,r1,112		; 70h
	lwz          r12,-8(r1)
	mtlr         r12
	ld           r31,-10h(r1)
	blr
$M76457:
; End code for function: GetWORD
GetWORD	ENDP

EXTRN	Sleep:PROC
EXTRN	XInputSetState:PROC
;	COMDAT .pdata
.pdata	SEGMENT
$T76464	DD	?Vibr01@@YAXXZ
	DD	040001a04H
; Function compile flags: /Ogsu

	.code
vibration$ = 80						; size = 4

?Vibr01@@YAXXZ PROC NEAR					; Vibr01, COMDAT

; Begin code for function: ?Vibr01@@YAXXZ
; Line 186
	mflr         r12
	stw          r12,-8(r1)
	std          r31,-10h(r1)
	stwu         r1,-70h(r1)
.endprolog
$M76462:
; Line 188
	addi         r11,r1,vibration$
	li           r31,0
; Line 192
	li           r10,32000		; 7D00h
	li           r9,16000		; 3E80h
	addi         r4,r1,vibration$
	stw          r31,0(r11)
	sth          r10,vibration$(r1)		; 80 (50h)
	li           r3,0
	sth          r9,vibration$+2(r1)		; 82 (52h)
	bl           XInputSetState
; Line 193
	li           r3,850		; 352h
	bl           Sleep
; Line 195
	sth          r31,vibration$(r1)		; 80 (50h)
; Line 196
	sth          r31,vibration$+2(r1)		; 82 (52h)
	addi         r4,r1,vibration$
	li           r3,0
	bl           XInputSetState
; Line 197
	addi         r1,r1,112		; 70h
	lwz          r12,-8(r1)
	mtlr         r12
	ld           r31,-10h(r1)
	blr
$M76463:
; End code for function: ?Vibr01@@YAXXZ
?Vibr01@@YAXXZ ENDP
							; Vibr01
PUBLIC	??_C@_07FEDBCEF@xam?4xex?$AA@			; `string'
PUBLIC	?commands@@YAKPA_W@Z				; commands
EXTRN	?resolveFunct@@YAKPADK@Z:PROC			; resolveFunct
;	COMDAT .pdata
.pdata	SEGMENT
$T76470	DD	?commands@@YAKPA_W@Z
	DD	040001f05H
;	COMDAT ??_C@_07FEDBCEF@xam?4xex?$AA@
.rdata	SEGMENT
??_C@_07FEDBCEF@xam?4xex?$AA@ DB 'xam.xex', 00H		; `string'
; Function compile flags: /Ogsu

	.code
buffer$ = 80						; size = 1196

?commands@@YAKPA_W@Z PROC NEAR				; commands, COMDAT

; Begin code for function: ?commands@@YAKPA_W@Z
; Line 209
	mflr         r12
	stw          r12,-8(r1)
	std          r30,-18h(r1)
	std          r31,-10h(r1)
	stwu         r1,-520h(r1)
.endprolog
$M76468:
; Line 210
	lis          r11,??_C@_07FEDBCEF@xam?4xex?$AA@
	mr           r31,r3
	li           r4,656		; 290h
	addi         r3,r11,??_C@_07FEDBCEF@xam?4xex?$AA@
	bl           ?resolveFunct@@YAKPADK@Z
	lis          r30,?XNotifyQueueUI@@3P6AXKKKPA_WK@ZA
	mr           r11,r3
; Line 212
	mr           r4,r31
	addi         r3,r1,buffer$
	stw          r11,?XNotifyQueueUI@@3P6AXKKKPA_WK@ZA(r30)
	bl           ?swprintf@@YAHPA_WPB_WZZ
; Line 213
	lwz          r11,?XNotifyQueueUI@@3P6AXKKKPA_WK@ZA(r30)
	li           r7,0
	addi         r6,r1,buffer$
	li           r5,2
	li           r4,0
	li           r3,34		; 22h
	mtctr        r11
	bctrl
; Line 215
	li           r3,0
; Line 216
	addi         r1,r1,1312		; 520h
	lwz          r12,-8(r1)
	mtlr         r12
	ld           r30,-18h(r1)
	ld           r31,-10h(r1)
	blr
$M76469:
; End code for function: ?commands@@YAKPA_W@Z
?commands@@YAKPA_W@Z ENDP
							; commands
PUBLIC	?DoCave@@YAXKPAKI@Z				; DoCave
EXTRN	memcpy:PROC
; Function compile flags: /Ogsu

	.code

?DoCave@@YAXKPAKI@Z PROC NEAR				; DoCave, COMDAT

; Begin code for function: ?DoCave@@YAXKPAKI@Z
; Line 220
	lis          r10,?KrnlType@@3KA
	mr           r11,r5
	lwz          r10,?KrnlType@@3KA(r10)
	cmplwi       cr6,r10,1
	blt          cr6,$LN2@DoCave
	bnelr        cr6
; Line 226
	lis          r10,?DmSetMemoryD@@3P6AJPAXKPBXPAK@ZA
	mr           r5,r4
	mr           r4,r11
	li           r6,0
	lwz          r11,?DmSetMemoryD@@3P6AJPAXKPBXPAK@ZA(r10)
	mtctr        r11
	bctr
$LN2@DoCave:
; Line 222
	mr           r5,r11
	b            memcpy
$LN3@DoCave:
	blr
; End code for function: ?DoCave@@YAXKPAKI@Z
?DoCave@@YAXKPAKI@Z ENDP
							; DoCave
PUBLIC	?Fastcave1@@YAXPAKQAKI@Z			; Fastcave1
; Function compile flags: /Ogsu

	.code

?Fastcave1@@YAXPAKQAKI@Z PROC NEAR			; Fastcave1, COMDAT

; Begin code for function: ?Fastcave1@@YAXPAKQAKI@Z
; Line 233
	lis          r10,?KrnlType@@3KA
	mr           r11,r5
	lwz          r10,?KrnlType@@3KA(r10)
	cmplwi       cr6,r10,1
	beq          cr6,$LN2@Fastcave1
; Line 234
	b            memcpy
$LN2@Fastcave1:
; Line 236
	lis          r10,?DmSetMemoryD@@3P6AJPAXKPBXPAK@ZA
	mr           r5,r4
	mr           r4,r11
	li           r6,0
	lwz          r11,?DmSetMemoryD@@3P6AJPAXKPBXPAK@ZA(r10)
	mtctr        r11
	bctr
; End code for function: ?Fastcave1@@YAXPAKQAKI@Z
?Fastcave1@@YAXPAKQAKI@Z ENDP
							; Fastcave1
PUBLIC	?Caveme@@YAXKPAXE@Z				; Caveme
EXTRN	?patchInJumpr31@@YAXPAKKH@Z:PROC		; patchInJumpr31
EXTRN	?patchInJumpr30@@YAXPAKKH@Z:PROC		; patchInJumpr30
EXTRN	?patchInJumpr29@@YAXPAKKH@Z:PROC		; patchInJumpr29
EXTRN	?patchInJumpr28@@YAXPAKKH@Z:PROC		; patchInJumpr28
EXTRN	?patchInJumpr27@@YAXPAKKH@Z:PROC		; patchInJumpr27
EXTRN	?patchInJumpr26@@YAXPAKKH@Z:PROC		; patchInJumpr26
EXTRN	?patchInJumpr25@@YAXPAKKH@Z:PROC		; patchInJumpr25
EXTRN	?patchInJumpr24@@YAXPAKKH@Z:PROC		; patchInJumpr24
EXTRN	?patchInJumpr23@@YAXPAKKH@Z:PROC		; patchInJumpr23
EXTRN	?patchInJumpr22@@YAXPAKKH@Z:PROC		; patchInJumpr22
EXTRN	?patchInJumpr21@@YAXPAKKH@Z:PROC		; patchInJumpr21
EXTRN	?patchInJumpr20@@YAXPAKKH@Z:PROC		; patchInJumpr20
EXTRN	?patchInJumpr19@@YAXPAKKH@Z:PROC		; patchInJumpr19
EXTRN	?patchInJumpr18@@YAXPAKKH@Z:PROC		; patchInJumpr18
EXTRN	?patchInJumpr17@@YAXPAKKH@Z:PROC		; patchInJumpr17
EXTRN	?patchInJumpr16@@YAXPAKKH@Z:PROC		; patchInJumpr16
EXTRN	?patchInJumpr15@@YAXPAKKH@Z:PROC		; patchInJumpr15
EXTRN	?patchInJumpr14@@YAXPAKKH@Z:PROC		; patchInJumpr14
EXTRN	?patchInJumpr13@@YAXPAKKH@Z:PROC		; patchInJumpr13
EXTRN	?patchInJumpr12@@YAXPAKKH@Z:PROC		; patchInJumpr12
EXTRN	?patchInJumpr11@@YAXPAKKH@Z:PROC		; patchInJumpr11
EXTRN	?patchInJumpr10@@YAXPAKKH@Z:PROC		; patchInJumpr10
EXTRN	?patchInJumpr9@@YAXPAKKH@Z:PROC			; patchInJumpr9
EXTRN	?patchInJumpr8@@YAXPAKKH@Z:PROC			; patchInJumpr8
EXTRN	?patchInJumpr7@@YAXPAKKH@Z:PROC			; patchInJumpr7
EXTRN	?patchInJumpr6@@YAXPAKKH@Z:PROC			; patchInJumpr6
EXTRN	?patchInJumpr5@@YAXPAKKH@Z:PROC			; patchInJumpr5
EXTRN	?patchInJumpr4@@YAXPAKKH@Z:PROC			; patchInJumpr4
EXTRN	?patchInJumpr3@@YAXPAKKH@Z:PROC			; patchInJumpr3
EXTRN	?patchInJumpr2@@YAXPAKKH@Z:PROC			; patchInJumpr2
EXTRN	?patchInJumpr1@@YAXPAKKH@Z:PROC			; patchInJumpr1
EXTRN	?patchInJumpr0@@YAXPAKKH@Z:PROC			; patchInJumpr0
EXTRN	__restgprlr_25:PROC
EXTRN	__savegprlr_25:PROC
;	COMDAT .pdata
.pdata	SEGMENT
$T76510	DD	?Caveme@@YAXKPAXE@Z
	DD	040012b03H
; Function compile flags: /Ogsu

	.code

?Caveme@@YAXKPAXE@Z PROC NEAR				; Caveme, COMDAT

; Begin code for function: ?Caveme@@YAXKPAXE@Z
; Line 241
	mflr         r12
	bl           __savegprlr_25
	stwu         r1,-90h(r1)
.endprolog
$M76508:
; Line 242
	lis          r11,?cavedata@@3PAKA
	mr           r25,r3
	mr           r30,r4
	clrlwi.      r29,r5,24
	addi         r31,r11,?cavedata@@3PAKA
	bne          $LN32@Caveme
; Line 243
	mr           r3,r31
	li           r5,0
	bl           ?patchInJumpr0@@YAXPAKKH@Z
$LN32@Caveme:
; Line 245
	cmplwi       cr6,r29,1
	bne          cr6,$LN31@Caveme
; Line 246
	mr           r3,r31
	li           r5,0
	mr           r4,r30
	bl           ?patchInJumpr1@@YAXPAKKH@Z
$LN31@Caveme:
; Line 248
	cmplwi       cr6,r29,2
	bne          cr6,$LN30@Caveme
; Line 249
	mr           r3,r31
	li           r5,0
	mr           r4,r30
	bl           ?patchInJumpr2@@YAXPAKKH@Z
$LN30@Caveme:
; Line 251
	cmplwi       cr6,r29,3
	bne          cr6,$LN29@Caveme
; Line 252
	mr           r3,r31
	li           r5,0
	mr           r4,r30
	bl           ?patchInJumpr3@@YAXPAKKH@Z
$LN29@Caveme:
; Line 254
	cmplwi       cr6,r29,4
	bne          cr6,$LN28@Caveme
; Line 255
	mr           r3,r31
	li           r5,0
	mr           r4,r30
	bl           ?patchInJumpr4@@YAXPAKKH@Z
$LN28@Caveme:
; Line 257
	cmplwi       cr6,r29,5
	bne          cr6,$LN27@Caveme
; Line 258
	mr           r3,r31
	li           r5,0
	mr           r4,r30
	bl           ?patchInJumpr5@@YAXPAKKH@Z
$LN27@Caveme:
; Line 260
	cmplwi       cr6,r29,6
	bne          cr6,$LN26@Caveme
; Line 261
	mr           r3,r31
	li           r5,0
	mr           r4,r30
	bl           ?patchInJumpr6@@YAXPAKKH@Z
$LN26@Caveme:
; Line 263
	cmplwi       cr6,r29,7
	bne          cr6,$LN25@Caveme
; Line 264
	mr           r3,r31
	li           r5,0
	mr           r4,r30
	bl           ?patchInJumpr7@@YAXPAKKH@Z
$LN25@Caveme:
; Line 266
	cmplwi       cr6,r29,8
	bne          cr6,$LN24@Caveme
; Line 267
	mr           r3,r31
	li           r5,0
	mr           r4,r30
	bl           ?patchInJumpr8@@YAXPAKKH@Z
$LN24@Caveme:
; Line 269
	cmplwi       cr6,r29,9
	bne          cr6,$LN23@Caveme
; Line 270
	mr           r3,r31
	li           r5,0
	mr           r4,r30
	bl           ?patchInJumpr9@@YAXPAKKH@Z
$LN23@Caveme:
; Line 272
	cmplwi       cr6,r29,10		; 0Ah
	bne          cr6,$LN22@Caveme
; Line 273
	mr           r3,r31
	li           r5,0
	mr           r4,r30
	bl           ?patchInJumpr10@@YAXPAKKH@Z
$LN22@Caveme:
; Line 275
	cmplwi       cr6,r29,11		; 0Bh
	bne          cr6,$LN21@Caveme
; Line 276
	mr           r3,r31
	li           r5,0
	mr           r4,r30
	bl           ?patchInJumpr11@@YAXPAKKH@Z
$LN21@Caveme:
; Line 278
	cmplwi       cr6,r29,12		; 0Ch
	bne          cr6,$LN20@Caveme
; Line 279
	mr           r3,r31
	li           r5,0
	mr           r4,r30
	bl           ?patchInJumpr12@@YAXPAKKH@Z
$LN20@Caveme:
; Line 281
	cmplwi       cr6,r29,13		; 0Dh
	bne          cr6,$LN19@Caveme
; Line 282
	mr           r3,r31
	li           r5,0
	mr           r4,r30
	bl           ?patchInJumpr13@@YAXPAKKH@Z
$LN19@Caveme:
; Line 284
	cmplwi       cr6,r29,14		; 0Eh
	bne          cr6,$LN18@Caveme
; Line 285
	mr           r3,r31
	li           r5,0
	mr           r4,r30
	bl           ?patchInJumpr14@@YAXPAKKH@Z
$LN18@Caveme:
; Line 287
	cmplwi       cr6,r29,15		; 0Fh
	bne          cr6,$LN17@Caveme
; Line 288
	mr           r3,r31
	li           r5,0
	mr           r4,r30
	bl           ?patchInJumpr15@@YAXPAKKH@Z
$LN17@Caveme:
; Line 290
	cmplwi       cr6,r29,16		; 10h
	bne          cr6,$LN16@Caveme
; Line 291
	mr           r3,r31
	li           r5,0
	mr           r4,r30
	bl           ?patchInJumpr16@@YAXPAKKH@Z
$LN16@Caveme:
; Line 293
	cmplwi       cr6,r29,17		; 11h
	bne          cr6,$LN15@Caveme
; Line 294
	mr           r3,r31
	li           r5,0
	mr           r4,r30
	bl           ?patchInJumpr17@@YAXPAKKH@Z
$LN15@Caveme:
; Line 296
	cmplwi       cr6,r29,18		; 12h
	bne          cr6,$LN14@Caveme
; Line 297
	mr           r3,r31
	li           r5,0
	mr           r4,r30
	bl           ?patchInJumpr18@@YAXPAKKH@Z
$LN14@Caveme:
; Line 299
	cmplwi       cr6,r29,19		; 13h
	bne          cr6,$LN13@Caveme
; Line 300
	mr           r3,r31
	li           r5,0
	mr           r4,r30
	bl           ?patchInJumpr19@@YAXPAKKH@Z
$LN13@Caveme:
; Line 302
	cmplwi       cr6,r29,20		; 14h
	bne          cr6,$LN12@Caveme
; Line 303
	mr           r3,r31
	li           r5,0
	mr           r4,r30
	bl           ?patchInJumpr20@@YAXPAKKH@Z
$LN12@Caveme:
; Line 305
	cmplwi       cr6,r29,21		; 15h
	bne          cr6,$LN11@Caveme
; Line 306
	mr           r3,r31
	li           r5,0
	mr           r4,r30
	bl           ?patchInJumpr21@@YAXPAKKH@Z
$LN11@Caveme:
; Line 308
	cmplwi       cr6,r29,22		; 16h
	bne          cr6,$LN10@Caveme
; Line 309
	mr           r3,r31
	li           r5,0
	mr           r4,r30
	bl           ?patchInJumpr22@@YAXPAKKH@Z
$LN10@Caveme:
; Line 311
	cmplwi       cr6,r29,23		; 17h
	bne          cr6,$LN9@Caveme
; Line 312
	mr           r3,r31
	li           r5,0
	mr           r4,r30
	bl           ?patchInJumpr23@@YAXPAKKH@Z
$LN9@Caveme:
; Line 314
	cmplwi       cr6,r29,24		; 18h
	bne          cr6,$LN8@Caveme
; Line 315
	mr           r3,r31
	li           r5,0
	mr           r4,r30
	bl           ?patchInJumpr24@@YAXPAKKH@Z
$LN8@Caveme:
; Line 317
	cmplwi       cr6,r29,25		; 19h
	bne          cr6,$LN7@Caveme
; Line 318
	mr           r3,r31
	li           r5,0
	mr           r4,r30
	bl           ?patchInJumpr25@@YAXPAKKH@Z
$LN7@Caveme:
; Line 320
	cmplwi       cr6,r29,26		; 1Ah
	bne          cr6,$LN6@Caveme
; Line 321
	mr           r3,r31
	li           r5,0
	mr           r4,r30
	bl           ?patchInJumpr26@@YAXPAKKH@Z
$LN6@Caveme:
; Line 323
	cmplwi       cr6,r29,27		; 1Bh
	bne          cr6,$LN5@Caveme
; Line 324
	mr           r3,r31
	li           r5,0
	mr           r4,r30
	bl           ?patchInJumpr27@@YAXPAKKH@Z
$LN5@Caveme:
; Line 326
	cmplwi       cr6,r29,28		; 1Ch
	bne          cr6,$LN4@Caveme
; Line 327
	mr           r3,r31
	li           r5,0
	mr           r4,r30
	bl           ?patchInJumpr28@@YAXPAKKH@Z
$LN4@Caveme:
; Line 329
	cmplwi       cr6,r29,29		; 1Dh
	bne          cr6,$LN3@Caveme
; Line 330
	mr           r3,r31
	li           r5,0
	mr           r4,r30
	bl           ?patchInJumpr29@@YAXPAKKH@Z
$LN3@Caveme:
; Line 332
	cmplwi       cr6,r29,30		; 1Eh
	bne          cr6,$LN2@Caveme
; Line 333
	mr           r3,r31
	li           r5,0
	mr           r4,r30
	bl           ?patchInJumpr30@@YAXPAKKH@Z
$LN2@Caveme:
; Line 335
	cmplwi       cr6,r29,31		; 1Fh
	bne          cr6,$LN1@Caveme
; Line 336
	mr           r3,r31
	li           r5,0
	mr           r4,r30
	bl           ?patchInJumpr31@@YAXPAKKH@Z
$LN1@Caveme:
; Line 343
	lis          r27,?KrnlType@@3KA
	lis          r30,?addy2@@3PAKA
	lis          r29,?addy3@@3PAKA
	lis          r26,?addy4@@3PAKA
	lis          r7,?addy1@@3PAKA
	lwz          r8,?KrnlType@@3KA(r27)
	addi         r11,r25,4
	addi         r10,r25,8
	addi         r9,r25,12		; 0Ch
	stw          r11,?addy2@@3PAKA(r30)
	lis          r28,?DmSetMemoryD@@3P6AJPAXKPBXPAK@ZA
	stw          r10,?addy3@@3PAKA(r29)
	stw          r25,?addy1@@3PAKA(r7)
	cmplwi       cr6,r8,1
	stw          r9,?addy4@@3PAKA(r26)
	beq          cr6,$LN36@Caveme
	lbz          r10,0(r31)
	mr           r11,r31
	stb          r10,0(r25)
	lbz          r10,1(r31)
	stb          r10,1(r25)
	lbz          r10,2(r31)
	stb          r10,2(r25)
	lbz          r11,3(r11)
	stb          r11,3(r25)
	b            $LN35@Caveme
$LN36@Caveme:
	lwz          r11,?DmSetMemoryD@@3P6AJPAXKPBXPAK@ZA(r28)
	mr           r5,r31
	li           r6,0
	li           r4,4
	mr           r3,r25
	mtctr        r11
	bctrl
$LN35@Caveme:
; Line 344
	lwz          r11,?KrnlType@@3KA(r27)
	cmplwi       cr6,r11,1
	beq          cr6,$LN40@Caveme
	lwz          r11,?addy2@@3PAKA(r30)
	addi         r10,r31,4
	lbz          r10,4(r31)
	mr           r9,r11
	stb          r10,0(r11)
	lbz          r11,5(r31)
	stb          r11,1(r9)
	lbz          r11,6(r31)
	stb          r11,2(r9)
	lbz          r11,7(r31)
	stb          r11,3(r9)
	b            $LN39@Caveme
$LN40@Caveme:
	lwz          r11,?DmSetMemoryD@@3P6AJPAXKPBXPAK@ZA(r28)
	li           r6,0
	li           r4,4
	lwz          r3,?addy2@@3PAKA(r30)
	addi         r5,r31,4
	mtctr        r11
	bctrl
$LN39@Caveme:
; Line 345
	lwz          r11,?KrnlType@@3KA(r27)
	cmplwi       cr6,r11,1
	beq          cr6,$LN44@Caveme
	lwz          r11,?addy3@@3PAKA(r29)
	addi         r10,r31,8
	lbz          r10,8(r31)
	mr           r9,r11
	stb          r10,0(r11)
	lbz          r11,9(r31)
	stb          r11,1(r9)
	lbz          r11,0Ah(r31)
	stb          r11,2(r9)
	lbz          r11,0Bh(r31)
	stb          r11,3(r9)
	b            $LN43@Caveme
$LN44@Caveme:
	lwz          r11,?DmSetMemoryD@@3P6AJPAXKPBXPAK@ZA(r28)
	li           r6,0
	li           r4,4
	lwz          r3,?addy3@@3PAKA(r29)
	addi         r5,r31,8
	mtctr        r11
	bctrl
$LN43@Caveme:
; Line 346
	lwz          r11,?KrnlType@@3KA(r27)
	cmplwi       cr6,r11,1
	beq          cr6,$LN48@Caveme
	addi         r10,r31,12		; 0Ch
	lwz          r11,?addy4@@3PAKA(r26)
	lbz          r10,0Ch(r31)
	mr           r9,r11
	stb          r10,0(r11)
	lbz          r11,0Dh(r31)
	stb          r11,1(r9)
	lbz          r11,0Eh(r31)
	stb          r11,2(r9)
	lbz          r11,0Fh(r31)
	stb          r11,3(r9)
	b            $LN47@Caveme
$LN48@Caveme:
	lwz          r11,?DmSetMemoryD@@3P6AJPAXKPBXPAK@ZA(r28)
	li           r6,0
	li           r4,4
	lwz          r3,?addy4@@3PAKA(r26)
	addi         r5,r31,12		; 0Ch
	mtctr        r11
	bctrl
$LN47@Caveme:
; Line 347
	addi         r1,r1,144		; 90h
	b            __restgprlr_25
$M76509:
; End code for function: ?Caveme@@YAXKPAXE@Z
?Caveme@@YAXKPAXE@Z ENDP
							; Caveme
PUBLIC	?PatchInJump@@YAXKKEE@Z				; PatchInJump
EXTRN	__restgprlr_28:PROC
EXTRN	__savegprlr_28:PROC
;	COMDAT .pdata
.pdata	SEGMENT
$T76519	DD	?PatchInJump@@YAXKKEE@Z
	DD	040002103H
; Function compile flags: /Ogsu

	.code

?PatchInJump@@YAXKKEE@Z	PROC NEAR			; PatchInJump, COMDAT

; Begin code for function: ?PatchInJump@@YAXKKEE@Z
; Line 350
	mflr         r12
	bl           __savegprlr_28
	stwu         r1,-80h(r1)
.endprolog
$M76517:
; Line 357
	srwi         r10,r4,16
	rlwinm       r11,r5,21,3,10
	mr           r30,r4
; Line 360
	or           r11,r11,r10
	mr           r31,r3
	oris         r4,r11,15360		; 3C00h
	mr           r29,r6
	clrlwi       r28,r5,24
	bl           SetDWORD
; Line 366
	lis          r11,33		; 21h
	clrlwi       r10,r30,16
	mullw        r11,r28,r11
	or           r11,r11,r10
	addi         r3,r31,4
	oris         r4,r11,24576		; 6000h
	bl           SetDWORD
	lis          r4,32105		; 7D69h
	addi         r3,r31,8
	ori          r4,r4,934		; 3A6h
	bl           SetDWORD
	clrlwi.      r11,r29,24
	lis          r4,20096		; 4E80h
	addi         r3,r31,12		; 0Ch
	beq          $LN2@PatchInJum
	ori          r4,r4,1057		; 421h
	b            $LN5@PatchInJum
$LN2@PatchInJum:
	ori          r4,r4,1056		; 420h
$LN5@PatchInJum:
	bl           SetDWORD
; Line 367
	addi         r1,r1,128		; 80h
	b            __restgprlr_28
$M76518:
; End code for function: ?PatchInJump@@YAXKKEE@Z
?PatchInJump@@YAXKKEE@Z ENDP
							; PatchInJump
; Function compile flags: /Odsu

	.code

?Saveregs@@YAXXZ PROC NEAR				; Saveregs, COMDAT

; Begin code for function: ?Saveregs@@YAXXZ
; Line 372
	stw          r10,-10h(r1)
; Line 373
	stw          r11,-8(r1)
; Line 375
	blr
; End code for function: ?Saveregs@@YAXXZ
?Saveregs@@YAXXZ ENDP
							; Saveregs
; Function compile flags: /Odsu

	.code

?Loadregs@@YAXXZ PROC NEAR				; Loadregs, COMDAT

; Begin code for function: ?Loadregs@@YAXXZ
; Line 378
	lwz          r10,-10h(r1)
; Line 379
	lwz          r11,-8(r1)
; Line 381
	blr
; End code for function: ?Loadregs@@YAXXZ
?Loadregs@@YAXXZ ENDP
							; Loadregs
PUBLIC	?GetAddr@@YAKKKPAKKK@Z				; GetAddr
;	COMDAT .pdata
.pdata	SEGMENT
$T76536	DD	?GetAddr@@YAKKKPAKKK@Z
	DD	040002e03H
; Function compile flags: /Ogsu

	.code

?GetAddr@@YAKKKPAKKK@Z PROC NEAR				; GetAddr, COMDAT

; Begin code for function: ?GetAddr@@YAKKKPAKKK@Z
; Line 384
	mflr         r12
	bl           __savegprlr_25
	stwu         r1,-90h(r1)
.endprolog
$M76534:
	mr           r28,r4
	mr           r27,r5
	mr           r29,r6
	mr           r25,r7
; Line 387
	mr           r31,r3
; Line 389
	cmplw        cr6,r3,r4
	bge          cr6,$LN9@GetAddr
; Line 387
	subf         r30,r5,r3
	lis          r26,1
$LL10@GetAddr:						; Start of loop
; Line 391
	clrlwi.      r11,r31,16
	bne          $LN7@GetAddr
; Line 393
	mr           r3,r31
	bl           MmIsAddressValid
	cmplwi       r3,0
	bne          $LN7@GetAddr
; Line 395
	add          r31,r31,r26
	add          r30,r30,r26
; Line 396
	b            $LN19@GetAddr
$LN7@GetAddr:
; Line 400
	li           r10,0
	cmplwi       cr6,r29,0
	beq          cr6,$LN16@GetAddr
	mr           r11,r27
$LL6@GetAddr:						; Start of loop
; Line 402
	lwzx         r9,r30,r11
	lwz          r8,0(r11)
	cmplw        cr6,r9,r8
	bne          cr6,$LN16@GetAddr
; Line 400
	addi         r10,r10,1
	addi         r11,r11,4
	cmplw        cr6,r10,r29
	blt          cr6,$LL6@GetAddr
$LN16@GetAddr:
; Line 406
	cmplw        cr6,r10,r29
	bne          cr6,$LN1@GetAddr
; Line 408
	addic.       r25,r25,-1		; 0FFFFh
; Line 409
	beq          $LN17@GetAddr
$LN1@GetAddr:
; Line 413
	addi         r31,r31,4
	addi         r30,r30,4
$LN19@GetAddr:
; Line 389
	cmplw        cr6,r31,r28
	blt          cr6,$LL10@GetAddr
$LN9@GetAddr:
; Line 415
	li           r3,0
$LN11@GetAddr:
; Line 416
	addi         r1,r1,144		; 90h
	b            __restgprlr_25
$LN17@GetAddr:
; Line 410
	mr           r3,r31
	b            $LN11@GetAddr
$M76535:
; End code for function: ?GetAddr@@YAKKKPAKKK@Z
?GetAddr@@YAKKKPAKKK@Z ENDP
							; GetAddr
PUBLIC	?btodw@@YAKPAE@Z				; btodw
; Function compile flags: /Ogsu

	.code

?btodw@@YAKPAE@Z PROC NEAR				; btodw, COMDAT

; Begin code for function: ?btodw@@YAKPAE@Z
; Line 425
	lbz          r11,0(r3)
	lbz          r10,1(r3)
	rotlwi       r11,r11,8
	lbz          r9,2(r3)
	lbz          r8,3(r3)
	or           r11,r11,r10
	slwi         r11,r11,8
	or           r11,r11,r9
	slwi         r11,r11,8
	or           r3,r11,r8
; Line 426
	blr
; End code for function: ?btodw@@YAKPAE@Z
?btodw@@YAKPAE@Z ENDP
							; btodw
PUBLIC	??_C@_1CK@NKCKLNAA@M?$AAo?$AAr?$AAe?$AA?5?$AAA?$AAt?$AA?5?$AAT?$AA3?$AAf?$AAu?$AAr?$AAy?$AA?4?$AAc?$AAo?$AA?4?$AAu?$AAk?$AA?$AA?$AA@ ; `string'
PUBLIC	??_C@_1MG@OGKNPHMC@0?$AA?5?$AAD?$AAa?$AAy?$AA?5?$AAA?$AAt?$AAt?$AAa?$AAc?$AAk?$AA?5?$AAO?$AAn?$AA?5?$AAE?$AAa?$AAr?$AAt?$AAh?$AA?5?$AA?$CL?$AA3?$AA?5?$AAT?$AAr?$AAa?$AAi?$AAn?$AAe?$AAr?$AA@ ; `string'
PUBLIC	?Trainer584109B7@@YAXXZ				; Trainer584109B7
;	COMDAT .pdata
; File c:\users\t3fur\desktop\viper engine 1.4\trainer\0 day attack on earth.h
.pdata	SEGMENT
$T76544	DD	?Trainer584109B7@@YAXXZ
	DD	040001903H
;	COMDAT ??_C@_1CK@NKCKLNAA@M?$AAo?$AAr?$AAe?$AA?5?$AAA?$AAt?$AA?5?$AAT?$AA3?$AAf?$AAu?$AAr?$AAy?$AA?4?$AAc?$AAo?$AA?4?$AAu?$AAk?$AA?$AA?$AA@
.rdata	SEGMENT
??_C@_1CK@NKCKLNAA@M?$AAo?$AAr?$AAe?$AA?5?$AAA?$AAt?$AA?5?$AAT?$AA3?$AAf?$AAu?$AAr?$AAy?$AA?4?$AAc?$AAo?$AA?4?$AAu?$AAk?$AA?$AA?$AA@ DB 00H
	DB	'M', 00H, 'o', 00H, 'r', 00H, 'e', 00H, ' ', 00H, 'A', 00H, 't'
	DB	00H, ' ', 00H, 'T', 00H, '3', 00H, 'f', 00H, 'u', 00H, 'r', 00H
	DB	'y', 00H, '.', 00H, 'c', 00H, 'o', 00H, '.', 00H, 'u', 00H, 'k'
	DB	00H, 00H					; `string'
;	COMDAT ??_C@_1MG@OGKNPHMC@0?$AA?5?$AAD?$AAa?$AAy?$AA?5?$AAA?$AAt?$AAt?$AAa?$AAc?$AAk?$AA?5?$AAO?$AAn?$AA?5?$AAE?$AAa?$AAr?$AAt?$AAh?$AA?5?$AA?$CL?$AA3?$AA?5?$AAT?$AAr?$AAa?$AAi?$AAn?$AAe?$AAr?$AA@
.rdata	SEGMENT
??_C@_1MG@OGKNPHMC@0?$AA?5?$AAD?$AAa?$AAy?$AA?5?$AAA?$AAt?$AAt?$AAa?$AAc?$AAk?$AA?5?$AAO?$AAn?$AA?5?$AAE?$AAa?$AAr?$AAt?$AAh?$AA?5?$AA?$CL?$AA3?$AA?5?$AAT?$AAr?$AAa?$AAi?$AAn?$AAe?$AAr?$AA@ DB 00H
	DB	'0', 00H, ' ', 00H, 'D', 00H, 'a', 00H, 'y', 00H, ' ', 00H, 'A'
	DB	00H, 't', 00H, 't', 00H, 'a', 00H, 'c', 00H, 'k', 00H, ' ', 00H
	DB	'O', 00H, 'n', 00H, ' ', 00H, 'E', 00H, 'a', 00H, 'r', 00H, 't'
	DB	00H, 'h', 00H, ' ', 00H, '+', 00H, '3', 00H, ' ', 00H, 'T', 00H
	DB	'r', 00H, 'a', 00H, 'i', 00H, 'n', 00H, 'e', 00H, 'r', 00H, 0dH
	DB	00H, 0aH, 00H, '~', 00H, '~', 00H, '~', 00H, '~', 00H, '~', 00H
	DB	'~', 00H, '~', 00H, '~', 00H, '~', 00H, '~', 00H, '~', 00H, '~'
	DB	00H, '~', 00H, '~', 00H, '~', 00H, '~', 00H, '~', 00H, '~', 00H
	DB	'~', 00H, '~', 00H, '~', 00H, '~', 00H, '~', 00H, '~', 00H, '~'
	DB	00H, 0dH, 00H, 0aH, 00H, 'V', 00H, 'i', 00H, 'e', 00H, 'w', 00H
	DB	' ', 00H, 'A', 00H, 'v', 00H, 'a', 00H, 'i', 00H, 'l', 00H, 'a'
	DB	00H, 'b', 00H, 'l', 00H, 'e', 00H, ' ', 00H, 'C', 00H, 'o', 00H
	DB	'd', 00H, 'e', 00H, 's', 00H, ':', 00H, ' ', 00H, 'D', 00H, 'P'
	DB	00H, 'A', 00H, 'D', 00H, '-', 00H, 'D', 00H, 'O', 00H, 'W', 00H
	DB	'N', 00H, '(', 00H, 'x', 00H, '4', 00H, ')', 00H, 0dH, 00H, 0aH
	DB	00H, 00H					; `string'
; Function compile flags: /Ogsu

	.code

?Trainer584109B7@@YAXXZ	PROC NEAR			; Trainer584109B7, COMDAT

; Begin code for function: ?Trainer584109B7@@YAXXZ
; Line 7
	mflr         r12
	stw          r12,-8(r1)
	stwu         r1,-60h(r1)
.endprolog
$M76542:
; Line 8
	lis          r9,?g_strButtons@@3PAPB_WA
	lis          r8,??_C@_1MG@OGKNPHMC@0?$AA?5?$AAD?$AAa?$AAy?$AA?5?$AAA?$AAt?$AAt?$AAa?$AAc?$AAk?$AA?5?$AAO?$AAn?$AA?5?$AAE?$AAa?$AAr?$AAt?$AAh?$AA?5?$AA?$CL?$AA3?$AA?5?$AAT?$AAr?$AAa?$AAi?$AAn?$AAe?$AAr?$AA@
	lis          r6,??_C@_1CK@NKCKLNAA@M?$AAo?$AAr?$AAe?$AA?5?$AAA?$AAt?$AA?5?$AAT?$AA3?$AAf?$AAu?$AAr?$AAy?$AA?4?$AAc?$AAo?$AA?4?$AAu?$AAk?$AA?$AA?$AA@
	lis          r11,?g_xol@@3U_XOVERLAPPED@@A
	lis          r10,?g_mb_result@@3U_MESSAGEBOX_RESULT@@A
	addi         r11,r11,?g_xol@@3U_XOVERLAPPED@@A
	addi         r7,r9,?g_strButtons@@3PAPB_WA
	addi         r5,r8,??_C@_1MG@OGKNPHMC@0?$AA?5?$AAD?$AAa?$AAy?$AA?5?$AAA?$AAt?$AAt?$AAa?$AAc?$AAk?$AA?5?$AAO?$AAn?$AA?5?$AAE?$AAa?$AAr?$AAt?$AAh?$AA?5?$AA?$CL?$AA3?$AA?5?$AAT?$AAr?$AAa?$AAi?$AAn?$AAe?$AAr?$AA@
	stw          r11,54h(r1)
	addi         r4,r6,??_C@_1CK@NKCKLNAA@M?$AAo?$AAr?$AAe?$AA?5?$AAA?$AAt?$AA?5?$AAT?$AA3?$AAf?$AAu?$AAr?$AAy?$AA?4?$AAc?$AAo?$AA?4?$AAu?$AAk?$AA?$AA?$AA@
	addi         r10,r10,?g_mb_result@@3U_MESSAGEBOX_RESULT@@A
	lis          r9,1
	li           r8,0
	li           r6,1
	li           r3,0
	bl           XShowMessageBoxUI
	lis          r11,?Prompt@@3KA
	stw          r3,?Prompt@@3KA(r11)
; Line 9
	addi         r1,r1,96		; 60h
	lwz          r12,-8(r1)
	mtlr         r12
	blr
$M76543:
; End code for function: ?Trainer584109B7@@YAXXZ
?Trainer584109B7@@YAXXZ ENDP
							; Trainer584109B7
PUBLIC	??_C@_1MI@EGDLNFNF@A?$AA?5?$AAK?$AAi?$AAn?$AAg?$AAd?$AAo?$AAm?$AA?5?$AAF?$AAo?$AAr?$AA?5?$AAK?$AAe?$AAf?$AAl?$AAi?$AAn?$AAg?$AAs?$AA?5?$AA?$CL?$AA1?$AA?5?$AAT?$AAr?$AAa?$AAi?$AAn?$AAe?$AA@ ; `string'
PUBLIC	?Trainer584108DB@@YAXXZ				; Trainer584108DB
;	COMDAT .pdata
; File c:\users\t3fur\desktop\viper engine 1.4\trainer\a kingdom for keflings.h
.pdata	SEGMENT
$T76550	DD	?Trainer584108DB@@YAXXZ
	DD	040001903H
;	COMDAT ??_C@_1MI@EGDLNFNF@A?$AA?5?$AAK?$AAi?$AAn?$AAg?$AAd?$AAo?$AAm?$AA?5?$AAF?$AAo?$AAr?$AA?5?$AAK?$AAe?$AAf?$AAl?$AAi?$AAn?$AAg?$AAs?$AA?5?$AA?$CL?$AA1?$AA?5?$AAT?$AAr?$AAa?$AAi?$AAn?$AAe?$AA@
.rdata	SEGMENT
??_C@_1MI@EGDLNFNF@A?$AA?5?$AAK?$AAi?$AAn?$AAg?$AAd?$AAo?$AAm?$AA?5?$AAF?$AAo?$AAr?$AA?5?$AAK?$AAe?$AAf?$AAl?$AAi?$AAn?$AAg?$AAs?$AA?5?$AA?$CL?$AA1?$AA?5?$AAT?$AAr?$AAa?$AAi?$AAn?$AAe?$AA@ DB 00H
	DB	'A', 00H, ' ', 00H, 'K', 00H, 'i', 00H, 'n', 00H, 'g', 00H, 'd'
	DB	00H, 'o', 00H, 'm', 00H, ' ', 00H, 'F', 00H, 'o', 00H, 'r', 00H
	DB	' ', 00H, 'K', 00H, 'e', 00H, 'f', 00H, 'l', 00H, 'i', 00H, 'n'
	DB	00H, 'g', 00H, 's', 00H, ' ', 00H, '+', 00H, '1', 00H, ' ', 00H
	DB	'T', 00H, 'r', 00H, 'a', 00H, 'i', 00H, 'n', 00H, 'e', 00H, 'r'
	DB	00H, 0dH, 00H, 0aH, 00H, '~', 00H, '~', 00H, '~', 00H, '~', 00H
	DB	'~', 00H, '~', 00H, '~', 00H, '~', 00H, '~', 00H, '~', 00H, '~'
	DB	00H, '~', 00H, '~', 00H, '~', 00H, '~', 00H, '~', 00H, '~', 00H
	DB	'~', 00H, '~', 00H, '~', 00H, '~', 00H, '~', 00H, '~', 00H, '~'
	DB	00H, '~', 00H, 0dH, 00H, 0aH, 00H, 'V', 00H, 'i', 00H, 'e', 00H
	DB	'w', 00H, ' ', 00H, 'A', 00H, 'v', 00H, 'a', 00H, 'i', 00H, 'l'
	DB	00H, 'a', 00H, 'b', 00H, 'l', 00H, 'e', 00H, ' ', 00H, 'C', 00H
	DB	'o', 00H, 'd', 00H, 'e', 00H, 's', 00H, ':', 00H, ' ', 00H, 'D'
	DB	00H, 'P', 00H, 'A', 00H, 'D', 00H, '-', 00H, 'D', 00H, 'O', 00H
	DB	'W', 00H, 'N', 00H, '(', 00H, 'x', 00H, '4', 00H, ')', 00H, 0dH
	DB	00H, 0aH, 00H, 00H				; `string'
; Function compile flags: /Ogsu

	.code

?Trainer584108DB@@YAXXZ	PROC NEAR			; Trainer584108DB, COMDAT

; Begin code for function: ?Trainer584108DB@@YAXXZ
; Line 6
	mflr         r12
	stw          r12,-8(r1)
	stwu         r1,-60h(r1)
.endprolog
$M76548:
; Line 7
	lis          r9,?g_strButtons@@3PAPB_WA
	lis          r8,??_C@_1MI@EGDLNFNF@A?$AA?5?$AAK?$AAi?$AAn?$AAg?$AAd?$AAo?$AAm?$AA?5?$AAF?$AAo?$AAr?$AA?5?$AAK?$AAe?$AAf?$AAl?$AAi?$AAn?$AAg?$AAs?$AA?5?$AA?$CL?$AA1?$AA?5?$AAT?$AAr?$AAa?$AAi?$AAn?$AAe?$AA@
	lis          r6,??_C@_1CK@NKCKLNAA@M?$AAo?$AAr?$AAe?$AA?5?$AAA?$AAt?$AA?5?$AAT?$AA3?$AAf?$AAu?$AAr?$AAy?$AA?4?$AAc?$AAo?$AA?4?$AAu?$AAk?$AA?$AA?$AA@
	lis          r11,?g_xol@@3U_XOVERLAPPED@@A
	lis          r10,?g_mb_result@@3U_MESSAGEBOX_RESULT@@A
	addi         r11,r11,?g_xol@@3U_XOVERLAPPED@@A
	addi         r7,r9,?g_strButtons@@3PAPB_WA
	addi         r5,r8,??_C@_1MI@EGDLNFNF@A?$AA?5?$AAK?$AAi?$AAn?$AAg?$AAd?$AAo?$AAm?$AA?5?$AAF?$AAo?$AAr?$AA?5?$AAK?$AAe?$AAf?$AAl?$AAi?$AAn?$AAg?$AAs?$AA?5?$AA?$CL?$AA1?$AA?5?$AAT?$AAr?$AAa?$AAi?$AAn?$AAe?$AA@
	stw          r11,54h(r1)
	addi         r4,r6,??_C@_1CK@NKCKLNAA@M?$AAo?$AAr?$AAe?$AA?5?$AAA?$AAt?$AA?5?$AAT?$AA3?$AAf?$AAu?$AAr?$AAy?$AA?4?$AAc?$AAo?$AA?4?$AAu?$AAk?$AA?$AA?$AA@
	addi         r10,r10,?g_mb_result@@3U_MESSAGEBOX_RESULT@@A
	lis          r9,1
	li           r8,0
	li           r6,1
	li           r3,0
	bl           XShowMessageBoxUI
	lis          r11,?Prompt@@3KA
	stw          r3,?Prompt@@3KA(r11)
; Line 8
	addi         r1,r1,96		; 60h
	lwz          r12,-8(r1)
	mtlr         r12
	blr
$M76549:
; End code for function: ?Trainer584108DB@@YAXXZ
?Trainer584108DB@@YAXXZ ENDP
							; Trainer584108DB
PUBLIC	??_C@_1MC@PDICLDEA@A?$AA?5?$AAW?$AAo?$AAr?$AAl?$AAd?$AA?5?$AAo?$AAf?$AA?5?$AAK?$AAe?$AAf?$AAl?$AAi?$AAn?$AAg?$AAs?$AA?5?$AA?$CL?$AA1?$AA?5?$AAT?$AAr?$AAa?$AAi?$AAn?$AAe?$AAr?$AA?$AN?$AA?6?$AA@ ; `string'
PUBLIC	?Trainer584109DB@@YAXXZ				; Trainer584109DB
;	COMDAT .pdata
; File c:\users\t3fur\desktop\viper engine 1.4\trainer\a world of keflings.h
.pdata	SEGMENT
$T76556	DD	?Trainer584109DB@@YAXXZ
	DD	040001903H
;	COMDAT ??_C@_1MC@PDICLDEA@A?$AA?5?$AAW?$AAo?$AAr?$AAl?$AAd?$AA?5?$AAo?$AAf?$AA?5?$AAK?$AAe?$AAf?$AAl?$AAi?$AAn?$AAg?$AAs?$AA?5?$AA?$CL?$AA1?$AA?5?$AAT?$AAr?$AAa?$AAi?$AAn?$AAe?$AAr?$AA?$AN?$AA?6?$AA@
.rdata	SEGMENT
??_C@_1MC@PDICLDEA@A?$AA?5?$AAW?$AAo?$AAr?$AAl?$AAd?$AA?5?$AAo?$AAf?$AA?5?$AAK?$AAe?$AAf?$AAl?$AAi?$AAn?$AAg?$AAs?$AA?5?$AA?$CL?$AA1?$AA?5?$AAT?$AAr?$AAa?$AAi?$AAn?$AAe?$AAr?$AA?$AN?$AA?6?$AA@ DB 00H
	DB	'A', 00H, ' ', 00H, 'W', 00H, 'o', 00H, 'r', 00H, 'l', 00H, 'd'
	DB	00H, ' ', 00H, 'o', 00H, 'f', 00H, ' ', 00H, 'K', 00H, 'e', 00H
	DB	'f', 00H, 'l', 00H, 'i', 00H, 'n', 00H, 'g', 00H, 's', 00H, ' '
	DB	00H, '+', 00H, '1', 00H, ' ', 00H, 'T', 00H, 'r', 00H, 'a', 00H
	DB	'i', 00H, 'n', 00H, 'e', 00H, 'r', 00H, 0dH, 00H, 0aH, 00H, '~'
	DB	00H, '~', 00H, '~', 00H, '~', 00H, '~', 00H, '~', 00H, '~', 00H
	DB	'~', 00H, '~', 00H, '~', 00H, '~', 00H, '~', 00H, '~', 00H, '~'
	DB	00H, '~', 00H, '~', 00H, '~', 00H, '~', 00H, '~', 00H, '~', 00H
	DB	'~', 00H, '~', 00H, '~', 00H, '~', 00H, '~', 00H, 0dH, 00H, 0aH
	DB	00H, 'V', 00H, 'i', 00H, 'e', 00H, 'w', 00H, ' ', 00H, 'A', 00H
	DB	'v', 00H, 'a', 00H, 'i', 00H, 'l', 00H, 'a', 00H, 'b', 00H, 'l'
	DB	00H, 'e', 00H, ' ', 00H, 'C', 00H, 'o', 00H, 'd', 00H, 'e', 00H
	DB	's', 00H, ':', 00H, ' ', 00H, 'D', 00H, 'P', 00H, 'A', 00H, 'D'
	DB	00H, '-', 00H, 'D', 00H, 'O', 00H, 'W', 00H, 'N', 00H, '(', 00H
	DB	'x', 00H, '4', 00H, ')', 00H, 0dH, 00H, 0aH, 00H, 00H ; `string'
; Function compile flags: /Ogsu

	.code

?Trainer584109DB@@YAXXZ	PROC NEAR			; Trainer584109DB, COMDAT

; Begin code for function: ?Trainer584109DB@@YAXXZ
; Line 8
	mflr         r12
	stw          r12,-8(r1)
	stwu         r1,-60h(r1)
.endprolog
$M76554:
; Line 9
	lis          r9,?g_strButtons@@3PAPB_WA
	lis          r8,??_C@_1MC@PDICLDEA@A?$AA?5?$AAW?$AAo?$AAr?$AAl?$AAd?$AA?5?$AAo?$AAf?$AA?5?$AAK?$AAe?$AAf?$AAl?$AAi?$AAn?$AAg?$AAs?$AA?5?$AA?$CL?$AA1?$AA?5?$AAT?$AAr?$AAa?$AAi?$AAn?$AAe?$AAr?$AA?$AN?$AA?6?$AA@
	lis          r6,??_C@_1CK@NKCKLNAA@M?$AAo?$AAr?$AAe?$AA?5?$AAA?$AAt?$AA?5?$AAT?$AA3?$AAf?$AAu?$AAr?$AAy?$AA?4?$AAc?$AAo?$AA?4?$AAu?$AAk?$AA?$AA?$AA@
	lis          r11,?g_xol@@3U_XOVERLAPPED@@A
	lis          r10,?g_mb_result@@3U_MESSAGEBOX_RESULT@@A
	addi         r11,r11,?g_xol@@3U_XOVERLAPPED@@A
	addi         r7,r9,?g_strButtons@@3PAPB_WA
	addi         r5,r8,??_C@_1MC@PDICLDEA@A?$AA?5?$AAW?$AAo?$AAr?$AAl?$AAd?$AA?5?$AAo?$AAf?$AA?5?$AAK?$AAe?$AAf?$AAl?$AAi?$AAn?$AAg?$AAs?$AA?5?$AA?$CL?$AA1?$AA?5?$AAT?$AAr?$AAa?$AAi?$AAn?$AAe?$AAr?$AA?$AN?$AA?6?$AA@
	stw          r11,54h(r1)
	addi         r4,r6,??_C@_1CK@NKCKLNAA@M?$AAo?$AAr?$AAe?$AA?5?$AAA?$AAt?$AA?5?$AAT?$AA3?$AAf?$AAu?$AAr?$AAy?$AA?4?$AAc?$AAo?$AA?4?$AAu?$AAk?$AA?$AA?$AA@
	addi         r10,r10,?g_mb_result@@3U_MESSAGEBOX_RESULT@@A
	lis          r9,1
	li           r8,0
	li           r6,1
	li           r3,0
	bl           XShowMessageBoxUI
	lis          r11,?Prompt@@3KA
	stw          r3,?Prompt@@3KA(r11)
; Line 10
	addi         r1,r1,96		; 60h
	lwz          r12,-8(r1)
	mtlr         r12
	blr
$M76555:
; End code for function: ?Trainer584109DB@@YAXXZ
?Trainer584109DB@@YAXXZ ENDP
							; Trainer584109DB
PUBLIC	?AotGCheckHealth@@YAXXZ				; AotGCheckHealth
; Function compile flags: /Odsu

	.code

?AotGCheckHealth@@YAXXZ	PROC NEAR			; AotGCheckHealth, COMDAT

; Begin code for function: ?AotGCheckHealth@@YAXXZ
; File c:\users\t3fur\desktop\viper engine 1.4\trainer\aces of the galaxy.h
; Line 13
	lfd          fr0,-10h(r1)
; Line 14
	fcfid        fr0,fr0
; Line 15
	frsp         fr0,fr0
; Line 16
	stfs         fr0,21Ch(r3)
; Line 17
	mflr         r15
; Line 20
	bl           ?Saveregs@@YAXXZ
; Line 24
	lis          r11,?MYPtr2@@3KA
	mr           r10,r3
	stw          r10,?MYPtr2@@3KA(r11)
; Line 27
	lis          r11,?MYPtr2@@3KA
	lwz          r11,?MYPtr2@@3KA(r11)
	lwz          r11,5D5h(r11)
	lis          r10,27745		; 6C61h
	ori          r10,r10,31077		; 7965h
	cmplw        cr6,r11,r10
	bne          cr6,$LN3@AotGCheckH
	lis          r11,?InfHealth@@3_NA
	lbz          r11,?InfHealth@@3_NA(r11)
	cmpwi        cr6,r11,1
	bne          cr6,$LN3@AotGCheckH
; Line 29
	lis          r11,?MYPtr2@@3KA
	lwz          r11,?MYPtr2@@3KA(r11)
	lis          r10,?MYPtr2@@3KA
	lwz          r10,?MYPtr2@@3KA(r10)
	lwz          r11,220h(r11)
	stw          r11,21Ch(r10)
	b            $LN1@AotGCheckH
$LN3@AotGCheckH:
; Line 32
	lis          r11,?MYPtr2@@3KA
	lwz          r11,?MYPtr2@@3KA(r11)
	lwz          r11,5D5h(r11)
	lis          r10,27745		; 6C61h
	ori          r10,r10,31077		; 7965h
	cmplw        cr6,r11,r10
	beq          cr6,$LN1@AotGCheckH
	lis          r11,?OneHitKo@@3_NA
	lbz          r11,?OneHitKo@@3_NA(r11)
	cmpwi        cr6,r11,1
	bne          cr6,$LN1@AotGCheckH
; Line 34
	lis          r11,?MYPtr2@@3KA
	lwz          r11,?MYPtr2@@3KA(r11)
	li           r10,0
	stw          r10,21Ch(r11)
$LN1@AotGCheckH:
; Line 38
	bl           ?Loadregs@@YAXXZ
; Line 42
	mtlr         r15
; Line 43
	blr
; End code for function: ?AotGCheckHealth@@YAXXZ
?AotGCheckHealth@@YAXXZ ENDP
							; AotGCheckHealth
PUBLIC	?AotGCheckScore@@YAXXZ				; AotGCheckScore
; Function compile flags: /Odsu

	.code

?AotGCheckScore@@YAXXZ PROC NEAR				; AotGCheckScore, COMDAT

; Begin code for function: ?AotGCheckScore@@YAXXZ
; Line 54
	lwz          r11,148h(r29)
; Line 55
	stw          r30,14Ch(r29)
; Line 56
	mflr         r14
; Line 59
	bl           ?Saveregs@@YAXXZ
; Line 63
	lis          r11,?MYPtr1@@3KA
	mr           r10,r10
	stw          r10,?MYPtr1@@3KA(r11)
; Line 64
	lis          r11,?MYPtr2@@3KA
	mr           r10,r29
	stw          r10,?MYPtr2@@3KA(r11)
; Line 67
	lis          r11,?MYPtr2@@3KA
	lwz          r11,?MYPtr2@@3KA(r11)
	lwz          r11,15Dh(r11)
	lis          r10,20480		; 5000h
	ori          r10,r10,27648		; 6C00h
	cmplw        cr6,r11,r10
	bne          cr6,$LN1@AotGCheckS
	lis          r11,?InfScore@@3_NA
	lbz          r11,?InfScore@@3_NA(r11)
	cmpwi        cr6,r11,1
	bne          cr6,$LN1@AotGCheckS
; Line 69
	lis          r11,?MYPtr2@@3KA
	lwz          r11,?MYPtr2@@3KA(r11)
	lis          r10,1525		; 5F5h
	ori          r10,r10,57599		; 0E0FFh
	stw          r10,14Ch(r11)
$LN1@AotGCheckS:
; Line 73
	bl           ?Loadregs@@YAXXZ
; Line 76
	ori          r10,r10,38528		; 9680h
; Line 77
	cmpw         cr6,r11,r10
; Line 78
	blt          cr6,br2
; Line 79
	mtlr         r14
br2:
; Line 81
	lis          r14,-32214		; 822Ah
; Line 82
	ori          r14,r14,53712		; 0D1D0h
; Line 83
	mtctr        r14
; Line 84
	bctr
; End code for function: ?AotGCheckScore@@YAXXZ
?AotGCheckScore@@YAXXZ ENDP
							; AotGCheckScore
PUBLIC	?AotGSetHooks@@YAXXZ				; AotGSetHooks
	.bss
addr1	DD	01H DUP (?)
;	COMDAT .pdata
.pdata	SEGMENT
$T76567	DD	?AotGSetHooks@@YAXXZ
	DD	040001804H
; Function compile flags: /Ogsu

	.code

?AotGSetHooks@@YAXXZ PROC NEAR				; AotGSetHooks, COMDAT

; Begin code for function: ?AotGSetHooks@@YAXXZ
; Line 89
	mflr         r12
	stw          r12,-8(r1)
	std          r31,-10h(r1)
	stwu         r1,-60h(r1)
.endprolog
$M76565:
; Line 91
	lis          r31,addr1
	lis          r11,?AotGCheckHealth@@YAXXZ
	addi         r10,r31,addr1
	li           r5,15		; 0Fh
	addi         r4,r11,?AotGCheckHealth@@YAXXZ
	lwz          r3,3214h(r10)
	bl           ?Caveme@@YAXKPAXE@Z
; Line 92
	lis          r11,?AotGCheckScore@@YAXXZ
	lwz          r3,addr1(r31)
	li           r5,14		; 0Eh
	addi         r4,r11,?AotGCheckScore@@YAXXZ
	bl           ?Caveme@@YAXKPAXE@Z
; Line 93
	lis          r10,?HooksSet@@3_NA
	li           r11,1
	stb          r11,?HooksSet@@3_NA(r10)
; Line 94
	addi         r1,r1,96		; 60h
	lwz          r12,-8(r1)
	mtlr         r12
	ld           r31,-10h(r1)
	blr
$M76566:
; End code for function: ?AotGSetHooks@@YAXXZ
?AotGSetHooks@@YAXXZ ENDP
							; AotGSetHooks
PUBLIC	??_C@_1PE@CGNDHOFM@A?$AAc?$AAe?$AAs?$AA?5?$AAO?$AAf?$AA?5?$AAT?$AAh?$AAe?$AA?5?$AAG?$AAa?$AAl?$AAa?$AAx?$AAy?$AA?5?$AA?$CL?$AA4?$AA?5?$AA?$AN?$AA?6?$AA?$HO?$AA?$HO?$AA?$HO?$AA?$HO?$AA?$HO?$AA?$HO?$AA?$HO?$AA?$HO?$AA@ ; `string'
PUBLIC	?Trainer58410886@@YAXXZ				; Trainer58410886
;	COMDAT .pdata
.pdata	SEGMENT
$T76573	DD	?Trainer58410886@@YAXXZ
	DD	040001e03H
;	COMDAT ??_C@_1PE@CGNDHOFM@A?$AAc?$AAe?$AAs?$AA?5?$AAO?$AAf?$AA?5?$AAT?$AAh?$AAe?$AA?5?$AAG?$AAa?$AAl?$AAa?$AAx?$AAy?$AA?5?$AA?$CL?$AA4?$AA?5?$AA?$AN?$AA?6?$AA?$HO?$AA?$HO?$AA?$HO?$AA?$HO?$AA?$HO?$AA?$HO?$AA?$HO?$AA?$HO?$AA@
.rdata	SEGMENT
??_C@_1PE@CGNDHOFM@A?$AAc?$AAe?$AAs?$AA?5?$AAO?$AAf?$AA?5?$AAT?$AAh?$AAe?$AA?5?$AAG?$AAa?$AAl?$AAa?$AAx?$AAy?$AA?5?$AA?$CL?$AA4?$AA?5?$AA?$AN?$AA?6?$AA?$HO?$AA?$HO?$AA?$HO?$AA?$HO?$AA?$HO?$AA?$HO?$AA?$HO?$AA?$HO?$AA@ DB 00H
	DB	'A', 00H, 'c', 00H, 'e', 00H, 's', 00H, ' ', 00H, 'O', 00H, 'f'
	DB	00H, ' ', 00H, 'T', 00H, 'h', 00H, 'e', 00H, ' ', 00H, 'G', 00H
	DB	'a', 00H, 'l', 00H, 'a', 00H, 'x', 00H, 'y', 00H, ' ', 00H, '+'
	DB	00H, '4', 00H, ' ', 00H, 0dH, 00H, 0aH, 00H, '~', 00H, '~', 00H
	DB	'~', 00H, '~', 00H, '~', 00H, '~', 00H, '~', 00H, '~', 00H, '~'
	DB	00H, '~', 00H, '~', 00H, '~', 00H, '~', 00H, '~', 00H, '~', 00H
	DB	'~', 00H, '~', 00H, '~', 00H, '~', 00H, '~', 00H, '~', 00H, '~'
	DB	00H, '~', 00H, '~', 00H, '~', 00H, 0dH, 00H, 0aH, 00H, 'V', 00H
	DB	'i', 00H, 'e', 00H, 'w', 00H, ' ', 00H, 'A', 00H, 'v', 00H, 'a'
	DB	00H, 'i', 00H, 'l', 00H, 'a', 00H, 'b', 00H, 'l', 00H, 'e', 00H
	DB	' ', 00H, 'C', 00H, 'o', 00H, 'd', 00H, 'e', 00H, 's', 00H, ':'
	DB	00H, ' ', 00H, 'D', 00H, 'P', 00H, 'A', 00H, 'D', 00H, '-', 00H
	DB	'D', 00H, 'O', 00H, 'W', 00H, 'N', 00H, '(', 00H, 'x', 00H, '4'
	DB	00H, ')', 00H, 0dH, 00H, 0aH, 00H, 'A', 00H, 'c', 00H, 't', 00H
	DB	'i', 00H, 'v', 00H, 'a', 00H, 't', 00H, 'e', 00H, ' ', 00H, 'A'
	DB	00H, 'l', 00H, 'l', 00H, ' ', 00H, 'C', 00H, 'o', 00H, 'd', 00H
	DB	'e', 00H, 's', 00H, ':', 00H, ' ', 00H, 'D', 00H, 'P', 00H, 'A'
	DB	00H, 'D', 00H, '-', 00H, 'U', 00H, 'P', 00H, '(', 00H, 'x', 00H
	DB	'4', 00H, ')', 00H, 0dH, 00H, 0aH, 00H, 00H	; `string'
; Function compile flags: /Ogsu

	.code

?Trainer58410886@@YAXXZ	PROC NEAR			; Trainer58410886, COMDAT

; Begin code for function: ?Trainer58410886@@YAXXZ
; Line 99
	mflr         r12
	stw          r12,-8(r1)
	stwu         r1,-60h(r1)
.endprolog
$M76571:
; Line 100
	lis          r9,?g_strButtons@@3PAPB_WA
	lis          r8,??_C@_1PE@CGNDHOFM@A?$AAc?$AAe?$AAs?$AA?5?$AAO?$AAf?$AA?5?$AAT?$AAh?$AAe?$AA?5?$AAG?$AAa?$AAl?$AAa?$AAx?$AAy?$AA?5?$AA?$CL?$AA4?$AA?5?$AA?$AN?$AA?6?$AA?$HO?$AA?$HO?$AA?$HO?$AA?$HO?$AA?$HO?$AA?$HO?$AA?$HO?$AA?$HO?$AA@
	lis          r6,??_C@_1CK@NKCKLNAA@M?$AAo?$AAr?$AAe?$AA?5?$AAA?$AAt?$AA?5?$AAT?$AA3?$AAf?$AAu?$AAr?$AAy?$AA?4?$AAc?$AAo?$AA?4?$AAu?$AAk?$AA?$AA?$AA@
	lis          r11,?g_xol@@3U_XOVERLAPPED@@A
	lis          r10,?g_mb_result@@3U_MESSAGEBOX_RESULT@@A
	addi         r11,r11,?g_xol@@3U_XOVERLAPPED@@A
	addi         r7,r9,?g_strButtons@@3PAPB_WA
	addi         r5,r8,??_C@_1PE@CGNDHOFM@A?$AAc?$AAe?$AAs?$AA?5?$AAO?$AAf?$AA?5?$AAT?$AAh?$AAe?$AA?5?$AAG?$AAa?$AAl?$AAa?$AAx?$AAy?$AA?5?$AA?$CL?$AA4?$AA?5?$AA?$AN?$AA?6?$AA?$HO?$AA?$HO?$AA?$HO?$AA?$HO?$AA?$HO?$AA?$HO?$AA?$HO?$AA?$HO?$AA@
	stw          r11,54h(r1)
	addi         r4,r6,??_C@_1CK@NKCKLNAA@M?$AAo?$AAr?$AAe?$AA?5?$AAA?$AAt?$AA?5?$AAT?$AA3?$AAf?$AAu?$AAr?$AAy?$AA?4?$AAc?$AAo?$AA?4?$AAu?$AAk?$AA?$AA?$AA@
	addi         r10,r10,?g_mb_result@@3U_MESSAGEBOX_RESULT@@A
	lis          r9,1
	li           r8,0
	li           r6,1
	li           r3,0
	bl           XShowMessageBoxUI
; Line 101
	lis          r11,?HooksSet@@3_NA
	lis          r10,?Prompt@@3KA
	lbz          r11,?HooksSet@@3_NA(r11)
	stw          r3,?Prompt@@3KA(r10)
	cmplwi       r11,0
	bne          $LN1@Trainer584
; Line 103
	bl           ?AotGSetHooks@@YAXXZ
$LN1@Trainer584:
; Line 106
	addi         r1,r1,96		; 60h
	lwz          r12,-8(r1)
	mtlr         r12
	blr
$M76572:
; End code for function: ?Trainer58410886@@YAXXZ
?Trainer58410886@@YAXXZ ENDP
							; Trainer58410886
PUBLIC	??_C@_1BAA@ECDPJDGC@A?$AAd?$AAv?$AAe?$AAn?$AAt?$AAu?$AAr?$AAe?$AA?5?$AAT?$AAi?$AAm?$AAe?$AA?5?$AAE?$AA?4?$AAT?$AA?4?$AAD?$AA?5?$AAB?$AAI?$AAD?$AAK?$AA?5?$AA?$CL?$AA5?$AA?$AN?$AA?6?$AA?$HO?$AA?$HO?$AA@ ; `string'
PUBLIC	?Trainer44500807@@YAXXZ				; Trainer44500807
;	COMDAT .pdata
; File c:\users\t3fur\desktop\viper engine 1.4\trainer\adventure time explore the dungeon bidk.h
.pdata	SEGMENT
$T76579	DD	?Trainer44500807@@YAXXZ
	DD	040001903H
;	COMDAT ??_C@_1BAA@ECDPJDGC@A?$AAd?$AAv?$AAe?$AAn?$AAt?$AAu?$AAr?$AAe?$AA?5?$AAT?$AAi?$AAm?$AAe?$AA?5?$AAE?$AA?4?$AAT?$AA?4?$AAD?$AA?5?$AAB?$AAI?$AAD?$AAK?$AA?5?$AA?$CL?$AA5?$AA?$AN?$AA?6?$AA?$HO?$AA?$HO?$AA@
.rdata	SEGMENT
??_C@_1BAA@ECDPJDGC@A?$AAd?$AAv?$AAe?$AAn?$AAt?$AAu?$AAr?$AAe?$AA?5?$AAT?$AAi?$AAm?$AAe?$AA?5?$AAE?$AA?4?$AAT?$AA?4?$AAD?$AA?5?$AAB?$AAI?$AAD?$AAK?$AA?5?$AA?$CL?$AA5?$AA?$AN?$AA?6?$AA?$HO?$AA?$HO?$AA@ DB 00H
	DB	'A', 00H, 'd', 00H, 'v', 00H, 'e', 00H, 'n', 00H, 't', 00H, 'u'
	DB	00H, 'r', 00H, 'e', 00H, ' ', 00H, 'T', 00H, 'i', 00H, 'm', 00H
	DB	'e', 00H, ' ', 00H, 'E', 00H, '.', 00H, 'T', 00H, '.', 00H, 'D'
	DB	00H, ' ', 00H, 'B', 00H, 'I', 00H, 'D', 00H, 'K', 00H, ' ', 00H
	DB	'+', 00H, '5', 00H, 0dH, 00H, 0aH, 00H, '~', 00H, '~', 00H, '~'
	DB	00H, '~', 00H, '~', 00H, '~', 00H, '~', 00H, '~', 00H, '~', 00H
	DB	'~', 00H, '~', 00H, '~', 00H, '~', 00H, '~', 00H, '~', 00H, '~'
	DB	00H, '~', 00H, '~', 00H, '~', 00H, '~', 00H, '~', 00H, '~', 00H
	DB	'~', 00H, '~', 00H, '~', 00H, 0dH, 00H, 0aH, 00H, 'V', 00H, 'i'
	DB	00H, 'e', 00H, 'w', 00H, ' ', 00H, 'A', 00H, 'v', 00H, 'a', 00H
	DB	'i', 00H, 'l', 00H, 'a', 00H, 'b', 00H, 'l', 00H, 'e', 00H, ' '
	DB	00H, 'C', 00H, 'o', 00H, 'd', 00H, 'e', 00H, 's', 00H, ':', 00H
	DB	' ', 00H, 'D', 00H, 'P', 00H, 'A', 00H, 'D', 00H, '-', 00H, 'D'
	DB	00H, 'O', 00H, 'W', 00H, 'N', 00H, '(', 00H, 'x', 00H, '4', 00H
	DB	')', 00H, 0dH, 00H, 0aH, 00H, 'A', 00H, 'c', 00H, 't', 00H, 'i'
	DB	00H, 'v', 00H, 'a', 00H, 't', 00H, 'e', 00H, ' ', 00H, 'A', 00H
	DB	'l', 00H, 'l', 00H, ' ', 00H, 'C', 00H, 'o', 00H, 'd', 00H, 'e'
	DB	00H, 's', 00H, ':', 00H, ' ', 00H, 'D', 00H, 'P', 00H, 'A', 00H
	DB	'D', 00H, '-', 00H, 'U', 00H, 'P', 00H, '(', 00H, 'x', 00H, '4'
	DB	00H, ')', 00H, 0dH, 00H, 0aH, 00H, 00H	; `string'
; Function compile flags: /Ogsu

	.code

?Trainer44500807@@YAXXZ	PROC NEAR			; Trainer44500807, COMDAT

; Begin code for function: ?Trainer44500807@@YAXXZ
; Line 7
	mflr         r12
	stw          r12,-8(r1)
	stwu         r1,-60h(r1)
.endprolog
$M76577:
; Line 8
	lis          r9,?g_strButtons@@3PAPB_WA
	lis          r8,??_C@_1BAA@ECDPJDGC@A?$AAd?$AAv?$AAe?$AAn?$AAt?$AAu?$AAr?$AAe?$AA?5?$AAT?$AAi?$AAm?$AAe?$AA?5?$AAE?$AA?4?$AAT?$AA?4?$AAD?$AA?5?$AAB?$AAI?$AAD?$AAK?$AA?5?$AA?$CL?$AA5?$AA?$AN?$AA?6?$AA?$HO?$AA?$HO?$AA@
	lis          r6,??_C@_1CK@NKCKLNAA@M?$AAo?$AAr?$AAe?$AA?5?$AAA?$AAt?$AA?5?$AAT?$AA3?$AAf?$AAu?$AAr?$AAy?$AA?4?$AAc?$AAo?$AA?4?$AAu?$AAk?$AA?$AA?$AA@
	lis          r11,?g_xol@@3U_XOVERLAPPED@@A
	lis          r10,?g_mb_result@@3U_MESSAGEBOX_RESULT@@A
	addi         r11,r11,?g_xol@@3U_XOVERLAPPED@@A
	addi         r7,r9,?g_strButtons@@3PAPB_WA
	addi         r5,r8,??_C@_1BAA@ECDPJDGC@A?$AAd?$AAv?$AAe?$AAn?$AAt?$AAu?$AAr?$AAe?$AA?5?$AAT?$AAi?$AAm?$AAe?$AA?5?$AAE?$AA?4?$AAT?$AA?4?$AAD?$AA?5?$AAB?$AAI?$AAD?$AAK?$AA?5?$AA?$CL?$AA5?$AA?$AN?$AA?6?$AA?$HO?$AA?$HO?$AA@
	stw          r11,54h(r1)
	addi         r4,r6,??_C@_1CK@NKCKLNAA@M?$AAo?$AAr?$AAe?$AA?5?$AAA?$AAt?$AA?5?$AAT?$AA3?$AAf?$AAu?$AAr?$AAy?$AA?4?$AAc?$AAo?$AA?4?$AAu?$AAk?$AA?$AA?$AA@
	addi         r10,r10,?g_mb_result@@3U_MESSAGEBOX_RESULT@@A
	lis          r9,1
	li           r8,0
	li           r6,1
	li           r3,0
	bl           XShowMessageBoxUI
	lis          r11,?Prompt@@3KA
	stw          r3,?Prompt@@3KA(r11)
; Line 9
	addi         r1,r1,96		; 60h
	lwz          r12,-8(r1)
	mtlr         r12
	blr
$M76578:
; End code for function: ?Trainer44500807@@YAXXZ
?Trainer44500807@@YAXXZ ENDP
							; Trainer44500807
PUBLIC	??_C@_1DC@JKLNPENH@h?$AAt?$AAt?$AAp?$AAs?$AA?3?$AA?1?$AA?1?$AAw?$AAw?$AAw?$AA?4?$AAt?$AA3?$AAf?$AAu?$AAr?$AAy?$AA?4?$AAc?$AAo?$AA?4?$AAu?$AAk?$AA?$AA?$AA@ ; `string'
PUBLIC	??_C@_1OI@PENOCJJO@A?$AAf?$AAr?$AAo?$AA?5?$AAS?$AAa?$AAm?$AAu?$AAr?$AAa?$AAi?$AA?5?$AA?$CL?$AA?5?$AA1?$AA?$AN?$AA?6?$AA?$HO?$AA?$HO?$AA?$HO?$AA?$HO?$AA?$HO?$AA?$HO?$AA?$HO?$AA?$HO?$AA?$HO?$AA?$HO?$AA?$HO?$AA?$HO?$AA?$HO?$AA?$HO?$AA@ ; `string'
PUBLIC	?Trainer4E4D07D8@@YAXXZ				; Trainer4E4D07D8
;	COMDAT .pdata
; File c:\users\t3fur\desktop\viper engine 1.4\trainer\afro samurai.h
.pdata	SEGMENT
$T76585	DD	?Trainer4E4D07D8@@YAXXZ
	DD	040001903H
;	COMDAT ??_C@_1DC@JKLNPENH@h?$AAt?$AAt?$AAp?$AAs?$AA?3?$AA?1?$AA?1?$AAw?$AAw?$AAw?$AA?4?$AAt?$AA3?$AAf?$AAu?$AAr?$AAy?$AA?4?$AAc?$AAo?$AA?4?$AAu?$AAk?$AA?$AA?$AA@
.rdata	SEGMENT
??_C@_1DC@JKLNPENH@h?$AAt?$AAt?$AAp?$AAs?$AA?3?$AA?1?$AA?1?$AAw?$AAw?$AAw?$AA?4?$AAt?$AA3?$AAf?$AAu?$AAr?$AAy?$AA?4?$AAc?$AAo?$AA?4?$AAu?$AAk?$AA?$AA?$AA@ DB 00H
	DB	'h', 00H, 't', 00H, 't', 00H, 'p', 00H, 's', 00H, ':', 00H, '/'
	DB	00H, '/', 00H, 'w', 00H, 'w', 00H, 'w', 00H, '.', 00H, 't', 00H
	DB	'3', 00H, 'f', 00H, 'u', 00H, 'r', 00H, 'y', 00H, '.', 00H, 'c'
	DB	00H, 'o', 00H, '.', 00H, 'u', 00H, 'k', 00H, 00H ; `string'
;	COMDAT ??_C@_1OI@PENOCJJO@A?$AAf?$AAr?$AAo?$AA?5?$AAS?$AAa?$AAm?$AAu?$AAr?$AAa?$AAi?$AA?5?$AA?$CL?$AA?5?$AA1?$AA?$AN?$AA?6?$AA?$HO?$AA?$HO?$AA?$HO?$AA?$HO?$AA?$HO?$AA?$HO?$AA?$HO?$AA?$HO?$AA?$HO?$AA?$HO?$AA?$HO?$AA?$HO?$AA?$HO?$AA?$HO?$AA@
.rdata	SEGMENT
??_C@_1OI@PENOCJJO@A?$AAf?$AAr?$AAo?$AA?5?$AAS?$AAa?$AAm?$AAu?$AAr?$AAa?$AAi?$AA?5?$AA?$CL?$AA?5?$AA1?$AA?$AN?$AA?6?$AA?$HO?$AA?$HO?$AA?$HO?$AA?$HO?$AA?$HO?$AA?$HO?$AA?$HO?$AA?$HO?$AA?$HO?$AA?$HO?$AA?$HO?$AA?$HO?$AA?$HO?$AA?$HO?$AA@ DB 00H
	DB	'A', 00H, 'f', 00H, 'r', 00H, 'o', 00H, ' ', 00H, 'S', 00H, 'a'
	DB	00H, 'm', 00H, 'u', 00H, 'r', 00H, 'a', 00H, 'i', 00H, ' ', 00H
	DB	'+', 00H, ' ', 00H, '1', 00H, 0dH, 00H, 0aH, 00H, '~', 00H, '~'
	DB	00H, '~', 00H, '~', 00H, '~', 00H, '~', 00H, '~', 00H, '~', 00H
	DB	'~', 00H, '~', 00H, '~', 00H, '~', 00H, '~', 00H, '~', 00H, '~'
	DB	00H, '~', 00H, '~', 00H, '~', 00H, '~', 00H, '~', 00H, '~', 00H
	DB	'~', 00H, '~', 00H, '~', 00H, '~', 00H, 0dH, 00H, 0aH, 00H, 'V'
	DB	00H, 'i', 00H, 'e', 00H, 'w', 00H, ' ', 00H, 'A', 00H, 'v', 00H
	DB	'a', 00H, 'i', 00H, 'l', 00H, 'a', 00H, 'b', 00H, 'l', 00H, 'e'
	DB	00H, ' ', 00H, 'C', 00H, 'o', 00H, 'd', 00H, 'e', 00H, 's', 00H
	DB	':', 00H, ' ', 00H, 'D', 00H, 'P', 00H, 'A', 00H, 'D', 00H, '-'
	DB	00H, 'D', 00H, 'O', 00H, 'W', 00H, 'N', 00H, '(', 00H, 'x', 00H
	DB	'4', 00H, ')', 00H, 0dH, 00H, 0aH, 00H, 'A', 00H, 'c', 00H, 't'
	DB	00H, 'i', 00H, 'v', 00H, 'a', 00H, 't', 00H, 'e', 00H, ' ', 00H
	DB	'A', 00H, 'l', 00H, 'l', 00H, ' ', 00H, 'C', 00H, 'o', 00H, 'd'
	DB	00H, 'e', 00H, 's', 00H, ':', 00H, ' ', 00H, 'D', 00H, 'P', 00H
	DB	'A', 00H, 'D', 00H, '-', 00H, 'U', 00H, 'P', 00H, '(', 00H, 'x'
	DB	00H, '4', 00H, ')', 00H, 0dH, 00H, 0aH, 00H, 00H ; `string'
; Function compile flags: /Ogsu

	.code

?Trainer4E4D07D8@@YAXXZ	PROC NEAR			; Trainer4E4D07D8, COMDAT

; Begin code for function: ?Trainer4E4D07D8@@YAXXZ
; Line 9
	mflr         r12
	stw          r12,-8(r1)
	stwu         r1,-60h(r1)
.endprolog
$M76583:
; Line 10
	lis          r9,?g_strButtons@@3PAPB_WA
	lis          r8,??_C@_1OI@PENOCJJO@A?$AAf?$AAr?$AAo?$AA?5?$AAS?$AAa?$AAm?$AAu?$AAr?$AAa?$AAi?$AA?5?$AA?$CL?$AA?5?$AA1?$AA?$AN?$AA?6?$AA?$HO?$AA?$HO?$AA?$HO?$AA?$HO?$AA?$HO?$AA?$HO?$AA?$HO?$AA?$HO?$AA?$HO?$AA?$HO?$AA?$HO?$AA?$HO?$AA?$HO?$AA?$HO?$AA@
	lis          r6,??_C@_1DC@JKLNPENH@h?$AAt?$AAt?$AAp?$AAs?$AA?3?$AA?1?$AA?1?$AAw?$AAw?$AAw?$AA?4?$AAt?$AA3?$AAf?$AAu?$AAr?$AAy?$AA?4?$AAc?$AAo?$AA?4?$AAu?$AAk?$AA?$AA?$AA@
	lis          r11,?g_xol@@3U_XOVERLAPPED@@A
	lis          r10,?g_mb_result@@3U_MESSAGEBOX_RESULT@@A
	addi         r11,r11,?g_xol@@3U_XOVERLAPPED@@A
	addi         r7,r9,?g_strButtons@@3PAPB_WA
	addi         r5,r8,??_C@_1OI@PENOCJJO@A?$AAf?$AAr?$AAo?$AA?5?$AAS?$AAa?$AAm?$AAu?$AAr?$AAa?$AAi?$AA?5?$AA?$CL?$AA?5?$AA1?$AA?$AN?$AA?6?$AA?$HO?$AA?$HO?$AA?$HO?$AA?$HO?$AA?$HO?$AA?$HO?$AA?$HO?$AA?$HO?$AA?$HO?$AA?$HO?$AA?$HO?$AA?$HO?$AA?$HO?$AA?$HO?$AA@
	stw          r11,54h(r1)
	addi         r4,r6,??_C@_1DC@JKLNPENH@h?$AAt?$AAt?$AAp?$AAs?$AA?3?$AA?1?$AA?1?$AAw?$AAw?$AAw?$AA?4?$AAt?$AA3?$AAf?$AAu?$AAr?$AAy?$AA?4?$AAc?$AAo?$AA?4?$AAu?$AAk?$AA?$AA?$AA@
	addi         r10,r10,?g_mb_result@@3U_MESSAGEBOX_RESULT@@A
	lis          r9,1
	li           r8,0
	li           r6,1
	li           r3,0
	bl           XShowMessageBoxUI
	lis          r11,?Prompt@@3KA
	stw          r3,?Prompt@@3KA(r11)
; Line 11
	addi         r1,r1,96		; 60h
	lwz          r12,-8(r1)
	mtlr         r12
	blr
$M76584:
; End code for function: ?Trainer4E4D07D8@@YAXXZ
?Trainer4E4D07D8@@YAXXZ ENDP
							; Trainer4E4D07D8
PUBLIC	??_C@_1CK@NNKGKBGB@M?$AAo?$AAr?$AAe?$AA?5?$AAa?$AAt?$AA?5?$AAT?$AA3?$AAf?$AAu?$AAr?$AAy?$AA?4?$AAc?$AAo?$AA?4?$AAu?$AAk?$AA?$AA?$AA@ ; `string'
PUBLIC	??_C@_1PG@IOFDGGLD@A?$AAf?$AAt?$AAe?$AAr?$AA?5?$AAB?$AAu?$AAr?$AAn?$AAe?$AAr?$AA?5?$AAC?$AAl?$AAi?$AAm?$AAa?$AAx?$AA?5?$AA?$CL?$AA?5?$AA2?$AA?$AN?$AA?6?$AA?$HO?$AA?$HO?$AA?$HO?$AA?$HO?$AA?$HO?$AA?$HO?$AA?$HO?$AA@ ; `string'
PUBLIC	?Trainer58410A06@@YAXXZ				; Trainer58410A06
;	COMDAT .pdata
; File c:\users\t3fur\desktop\viper engine 1.4\trainer\afterburner climax.h
.pdata	SEGMENT
$T76591	DD	?Trainer58410A06@@YAXXZ
	DD	040001903H
;	COMDAT ??_C@_1CK@NNKGKBGB@M?$AAo?$AAr?$AAe?$AA?5?$AAa?$AAt?$AA?5?$AAT?$AA3?$AAf?$AAu?$AAr?$AAy?$AA?4?$AAc?$AAo?$AA?4?$AAu?$AAk?$AA?$AA?$AA@
.rdata	SEGMENT
??_C@_1CK@NNKGKBGB@M?$AAo?$AAr?$AAe?$AA?5?$AAa?$AAt?$AA?5?$AAT?$AA3?$AAf?$AAu?$AAr?$AAy?$AA?4?$AAc?$AAo?$AA?4?$AAu?$AAk?$AA?$AA?$AA@ DB 00H
	DB	'M', 00H, 'o', 00H, 'r', 00H, 'e', 00H, ' ', 00H, 'a', 00H, 't'
	DB	00H, ' ', 00H, 'T', 00H, '3', 00H, 'f', 00H, 'u', 00H, 'r', 00H
	DB	'y', 00H, '.', 00H, 'c', 00H, 'o', 00H, '.', 00H, 'u', 00H, 'k'
	DB	00H, 00H					; `string'
;	COMDAT ??_C@_1PG@IOFDGGLD@A?$AAf?$AAt?$AAe?$AAr?$AA?5?$AAB?$AAu?$AAr?$AAn?$AAe?$AAr?$AA?5?$AAC?$AAl?$AAi?$AAm?$AAa?$AAx?$AA?5?$AA?$CL?$AA?5?$AA2?$AA?$AN?$AA?6?$AA?$HO?$AA?$HO?$AA?$HO?$AA?$HO?$AA?$HO?$AA?$HO?$AA?$HO?$AA@
.rdata	SEGMENT
??_C@_1PG@IOFDGGLD@A?$AAf?$AAt?$AAe?$AAr?$AA?5?$AAB?$AAu?$AAr?$AAn?$AAe?$AAr?$AA?5?$AAC?$AAl?$AAi?$AAm?$AAa?$AAx?$AA?5?$AA?$CL?$AA?5?$AA2?$AA?$AN?$AA?6?$AA?$HO?$AA?$HO?$AA?$HO?$AA?$HO?$AA?$HO?$AA?$HO?$AA?$HO?$AA@ DB 00H
	DB	'A', 00H, 'f', 00H, 't', 00H, 'e', 00H, 'r', 00H, ' ', 00H, 'B'
	DB	00H, 'u', 00H, 'r', 00H, 'n', 00H, 'e', 00H, 'r', 00H, ' ', 00H
	DB	'C', 00H, 'l', 00H, 'i', 00H, 'm', 00H, 'a', 00H, 'x', 00H, ' '
	DB	00H, '+', 00H, ' ', 00H, '2', 00H, 0dH, 00H, 0aH, 00H, '~', 00H
	DB	'~', 00H, '~', 00H, '~', 00H, '~', 00H, '~', 00H, '~', 00H, '~'
	DB	00H, '~', 00H, '~', 00H, '~', 00H, '~', 00H, '~', 00H, '~', 00H
	DB	'~', 00H, '~', 00H, '~', 00H, '~', 00H, '~', 00H, '~', 00H, '~'
	DB	00H, '~', 00H, '~', 00H, '~', 00H, '~', 00H, 0dH, 00H, 0aH, 00H
	DB	'V', 00H, 'i', 00H, 'e', 00H, 'w', 00H, ' ', 00H, 'A', 00H, 'v'
	DB	00H, 'a', 00H, 'i', 00H, 'l', 00H, 'a', 00H, 'b', 00H, 'l', 00H
	DB	'e', 00H, ' ', 00H, 'C', 00H, 'o', 00H, 'd', 00H, 'e', 00H, 's'
	DB	00H, ':', 00H, ' ', 00H, 'D', 00H, 'P', 00H, 'A', 00H, 'D', 00H
	DB	'-', 00H, 'D', 00H, 'O', 00H, 'W', 00H, 'N', 00H, '(', 00H, 'x'
	DB	00H, '4', 00H, ')', 00H, 0dH, 00H, 0aH, 00H, 'A', 00H, 'c', 00H
	DB	't', 00H, 'i', 00H, 'v', 00H, 'a', 00H, 't', 00H, 'e', 00H, ' '
	DB	00H, 'A', 00H, 'l', 00H, 'l', 00H, ' ', 00H, 'C', 00H, 'o', 00H
	DB	'd', 00H, 'e', 00H, 's', 00H, ':', 00H, ' ', 00H, 'D', 00H, 'P'
	DB	00H, 'A', 00H, 'D', 00H, '-', 00H, 'U', 00H, 'P', 00H, '(', 00H
	DB	'x', 00H, '4', 00H, ')', 00H, 0dH, 00H, 0aH, 00H, 00H ; `string'
; Function compile flags: /Ogsu

	.code

?Trainer58410A06@@YAXXZ	PROC NEAR			; Trainer58410A06, COMDAT

; Begin code for function: ?Trainer58410A06@@YAXXZ
; Line 9
	mflr         r12
	stw          r12,-8(r1)
	stwu         r1,-60h(r1)
.endprolog
$M76589:
; Line 10
	lis          r9,?g_strButtons@@3PAPB_WA
	lis          r8,??_C@_1PG@IOFDGGLD@A?$AAf?$AAt?$AAe?$AAr?$AA?5?$AAB?$AAu?$AAr?$AAn?$AAe?$AAr?$AA?5?$AAC?$AAl?$AAi?$AAm?$AAa?$AAx?$AA?5?$AA?$CL?$AA?5?$AA2?$AA?$AN?$AA?6?$AA?$HO?$AA?$HO?$AA?$HO?$AA?$HO?$AA?$HO?$AA?$HO?$AA?$HO?$AA@
	lis          r6,??_C@_1CK@NNKGKBGB@M?$AAo?$AAr?$AAe?$AA?5?$AAa?$AAt?$AA?5?$AAT?$AA3?$AAf?$AAu?$AAr?$AAy?$AA?4?$AAc?$AAo?$AA?4?$AAu?$AAk?$AA?$AA?$AA@
	lis          r11,?g_xol@@3U_XOVERLAPPED@@A
	lis          r10,?g_mb_result@@3U_MESSAGEBOX_RESULT@@A
	addi         r11,r11,?g_xol@@3U_XOVERLAPPED@@A
	addi         r7,r9,?g_strButtons@@3PAPB_WA
	addi         r5,r8,??_C@_1PG@IOFDGGLD@A?$AAf?$AAt?$AAe?$AAr?$AA?5?$AAB?$AAu?$AAr?$AAn?$AAe?$AAr?$AA?5?$AAC?$AAl?$AAi?$AAm?$AAa?$AAx?$AA?5?$AA?$CL?$AA?5?$AA2?$AA?$AN?$AA?6?$AA?$HO?$AA?$HO?$AA?$HO?$AA?$HO?$AA?$HO?$AA?$HO?$AA?$HO?$AA@
	stw          r11,54h(r1)
	addi         r4,r6,??_C@_1CK@NNKGKBGB@M?$AAo?$AAr?$AAe?$AA?5?$AAa?$AAt?$AA?5?$AAT?$AA3?$AAf?$AAu?$AAr?$AAy?$AA?4?$AAc?$AAo?$AA?4?$AAu?$AAk?$AA?$AA?$AA@
	addi         r10,r10,?g_mb_result@@3U_MESSAGEBOX_RESULT@@A
	lis          r9,1
	li           r8,0
	li           r6,1
	li           r3,0
	bl           XShowMessageBoxUI
	lis          r11,?Prompt@@3KA
	stw          r3,?Prompt@@3KA(r11)
; Line 12
	addi         r1,r1,96		; 60h
	lwz          r12,-8(r1)
	mtlr         r12
	blr
$M76590:
; End code for function: ?Trainer58410A06@@YAXXZ
?Trainer58410A06@@YAXXZ ENDP
							; Trainer58410A06
PUBLIC	?ACVietCheckHealth@@YAXXZ			; ACVietCheckHealth
; Function compile flags: /Odsu

	.code

?ACVietCheckHealth@@YAXXZ PROC NEAR			; ACVietCheckHealth, COMDAT

; Begin code for function: ?ACVietCheckHealth@@YAXXZ
; File c:\users\t3fur\desktop\viper engine 1.4\trainer\air conflicts vietnam.h
; Line 14
	lfs          fr0,0(r26)
; Line 15
	mflr         r3
; Line 18
	bl           ?Saveregs@@YAXXZ
; Line 22
	lis          r11,?MYPtr1@@3KA
	mr           r10,r26
	stw          r10,?MYPtr1@@3KA(r11)
; Line 26
	lis          r11,?InfHealth@@3_NA
	lbz          r11,?InfHealth@@3_NA(r11)
	cmpwi        cr6,r11,1
	bne          cr6,$LN1@ACVietChec
; Line 28
	lis          r11,?MYPtr1@@3KA
	lwz          r11,?MYPtr1@@3KA(r11)
	lis          r10,18149		; 46E5h
	ori          r10,r10,22784		; 5900h
	stw          r10,0(r11)
$LN1@ACVietChec:
; Line 31
	bl           ?Loadregs@@YAXXZ
; Line 37
	fcmpu        cr6,fr0,fr28
; Line 38
	blt          cr6,br2
; Line 39
	add          r10,r31,r15
; Line 41
	mtlr         r3
br2:
; Line 44
	lis          r3,-32226		; 821Eh
; Line 45
	ori          r3,r3,3820		; 0EECh
; Line 46
	mtctr        r3
; Line 47
	bctr
; End code for function: ?ACVietCheckHealth@@YAXXZ
?ACVietCheckHealth@@YAXXZ ENDP
							; ACVietCheckHealth
PUBLIC	?AConVSetHooks@@YAXXZ				; AConVSetHooks
	.bss
addr	DD	01H DUP (?)
;	COMDAT .pdata
.pdata	SEGMENT
$T76600	DD	?AConVSetHooks@@YAXXZ
	DD	040001003H
; Function compile flags: /Ogsu

	.code

?AConVSetHooks@@YAXXZ PROC NEAR				; AConVSetHooks, COMDAT

; Begin code for function: ?AConVSetHooks@@YAXXZ
; Line 56
	mflr         r12
	stw          r12,-8(r1)
	stwu         r1,-60h(r1)
.endprolog
$M76598:
; Line 57
	lis          r11,addr
	lis          r10,?ACVietCheckHealth@@YAXXZ
	li           r5,3
	addi         r4,r10,?ACVietCheckHealth@@YAXXZ
	lwz          r3,addr(r11)
	bl           ?Caveme@@YAXKPAXE@Z
; Line 58
	lis          r10,?HooksSet@@3_NA
	li           r11,1
	stb          r11,?HooksSet@@3_NA(r10)
; Line 59
	addi         r1,r1,96		; 60h
	lwz          r12,-8(r1)
	mtlr         r12
	blr
$M76599:
; End code for function: ?AConVSetHooks@@YAXXZ
?AConVSetHooks@@YAXXZ ENDP
							; AConVSetHooks
PUBLIC	??_C@_1PK@EGPEDNDI@A?$AAi?$AAr?$AA?5?$AAC?$AAo?$AAn?$AAf?$AAl?$AAi?$AAc?$AAt?$AAs?$AA?5?$AAV?$AAi?$AAe?$AAt?$AAn?$AAa?$AAm?$AA?5?$AA?$CL?$AA?5?$AA4?$AA?$AN?$AA?6?$AA?$HO?$AA?$HO?$AA?$HO?$AA?$HO?$AA?$HO?$AA@ ; `string'
PUBLIC	?Trainer413307D9@@YAXXZ				; Trainer413307D9
;	COMDAT .pdata
.pdata	SEGMENT
$T76606	DD	?Trainer413307D9@@YAXXZ
	DD	040001e03H
;	COMDAT ??_C@_1PK@EGPEDNDI@A?$AAi?$AAr?$AA?5?$AAC?$AAo?$AAn?$AAf?$AAl?$AAi?$AAc?$AAt?$AAs?$AA?5?$AAV?$AAi?$AAe?$AAt?$AAn?$AAa?$AAm?$AA?5?$AA?$CL?$AA?5?$AA4?$AA?$AN?$AA?6?$AA?$HO?$AA?$HO?$AA?$HO?$AA?$HO?$AA?$HO?$AA@
.rdata	SEGMENT
??_C@_1PK@EGPEDNDI@A?$AAi?$AAr?$AA?5?$AAC?$AAo?$AAn?$AAf?$AAl?$AAi?$AAc?$AAt?$AAs?$AA?5?$AAV?$AAi?$AAe?$AAt?$AAn?$AAa?$AAm?$AA?5?$AA?$CL?$AA?5?$AA4?$AA?$AN?$AA?6?$AA?$HO?$AA?$HO?$AA?$HO?$AA?$HO?$AA?$HO?$AA@ DB 00H
	DB	'A', 00H, 'i', 00H, 'r', 00H, ' ', 00H, 'C', 00H, 'o', 00H, 'n'
	DB	00H, 'f', 00H, 'l', 00H, 'i', 00H, 'c', 00H, 't', 00H, 's', 00H
	DB	' ', 00H, 'V', 00H, 'i', 00H, 'e', 00H, 't', 00H, 'n', 00H, 'a'
	DB	00H, 'm', 00H, ' ', 00H, '+', 00H, ' ', 00H, '4', 00H, 0dH, 00H
	DB	0aH, 00H, '~', 00H, '~', 00H, '~', 00H, '~', 00H, '~', 00H, '~'
	DB	00H, '~', 00H, '~', 00H, '~', 00H, '~', 00H, '~', 00H, '~', 00H
	DB	'~', 00H, '~', 00H, '~', 00H, '~', 00H, '~', 00H, '~', 00H, '~'
	DB	00H, '~', 00H, '~', 00H, '~', 00H, '~', 00H, '~', 00H, '~', 00H
	DB	0dH, 00H, 0aH, 00H, 'V', 00H, 'i', 00H, 'e', 00H, 'w', 00H, ' '
	DB	00H, 'A', 00H, 'v', 00H, 'a', 00H, 'i', 00H, 'l', 00H, 'a', 00H
	DB	'b', 00H, 'l', 00H, 'e', 00H, ' ', 00H, 'C', 00H, 'o', 00H, 'd'
	DB	00H, 'e', 00H, 's', 00H, ':', 00H, ' ', 00H, 'D', 00H, 'P', 00H
	DB	'A', 00H, 'D', 00H, '-', 00H, 'D', 00H, 'O', 00H, 'W', 00H, 'N'
	DB	00H, '(', 00H, 'x', 00H, '4', 00H, ')', 00H, 0dH, 00H, 0aH, 00H
	DB	'A', 00H, 'c', 00H, 't', 00H, 'i', 00H, 'v', 00H, 'a', 00H, 't'
	DB	00H, 'e', 00H, ' ', 00H, 'A', 00H, 'l', 00H, 'l', 00H, ' ', 00H
	DB	'C', 00H, 'o', 00H, 'd', 00H, 'e', 00H, 's', 00H, ':', 00H, ' '
	DB	00H, 'D', 00H, 'P', 00H, 'A', 00H, 'D', 00H, '-', 00H, 'U', 00H
	DB	'P', 00H, '(', 00H, 'x', 00H, '4', 00H, ')', 00H, 0dH, 00H, 0aH
	DB	00H, 00H					; `string'
; Function compile flags: /Ogsu

	.code

?Trainer413307D9@@YAXXZ	PROC NEAR			; Trainer413307D9, COMDAT

; Begin code for function: ?Trainer413307D9@@YAXXZ
; Line 62
	mflr         r12
	stw          r12,-8(r1)
	stwu         r1,-60h(r1)
.endprolog
$M76604:
; Line 63
	lis          r9,?g_strButtons@@3PAPB_WA
	lis          r8,??_C@_1PK@EGPEDNDI@A?$AAi?$AAr?$AA?5?$AAC?$AAo?$AAn?$AAf?$AAl?$AAi?$AAc?$AAt?$AAs?$AA?5?$AAV?$AAi?$AAe?$AAt?$AAn?$AAa?$AAm?$AA?5?$AA?$CL?$AA?5?$AA4?$AA?$AN?$AA?6?$AA?$HO?$AA?$HO?$AA?$HO?$AA?$HO?$AA?$HO?$AA@
	lis          r6,??_C@_1CK@NNKGKBGB@M?$AAo?$AAr?$AAe?$AA?5?$AAa?$AAt?$AA?5?$AAT?$AA3?$AAf?$AAu?$AAr?$AAy?$AA?4?$AAc?$AAo?$AA?4?$AAu?$AAk?$AA?$AA?$AA@
	lis          r11,?g_xol@@3U_XOVERLAPPED@@A
	lis          r10,?g_mb_result@@3U_MESSAGEBOX_RESULT@@A
	addi         r11,r11,?g_xol@@3U_XOVERLAPPED@@A
	addi         r7,r9,?g_strButtons@@3PAPB_WA
	addi         r5,r8,??_C@_1PK@EGPEDNDI@A?$AAi?$AAr?$AA?5?$AAC?$AAo?$AAn?$AAf?$AAl?$AAi?$AAc?$AAt?$AAs?$AA?5?$AAV?$AAi?$AAe?$AAt?$AAn?$AAa?$AAm?$AA?5?$AA?$CL?$AA?5?$AA4?$AA?$AN?$AA?6?$AA?$HO?$AA?$HO?$AA?$HO?$AA?$HO?$AA?$HO?$AA@
	stw          r11,54h(r1)
	addi         r4,r6,??_C@_1CK@NNKGKBGB@M?$AAo?$AAr?$AAe?$AA?5?$AAa?$AAt?$AA?5?$AAT?$AA3?$AAf?$AAu?$AAr?$AAy?$AA?4?$AAc?$AAo?$AA?4?$AAu?$AAk?$AA?$AA?$AA@
	addi         r10,r10,?g_mb_result@@3U_MESSAGEBOX_RESULT@@A
	lis          r9,1
	li           r8,0
	li           r6,1
	li           r3,0
	bl           XShowMessageBoxUI
; Line 64
	lis          r11,?HooksSet@@3_NA
	lis          r10,?Prompt@@3KA
	lbz          r11,?HooksSet@@3_NA(r11)
	stw          r3,?Prompt@@3KA(r10)
	cmplwi       r11,0
	bne          $LN1@Trainer413
; Line 66
	bl           ?AConVSetHooks@@YAXXZ
$LN1@Trainer413:
; Line 68
	addi         r1,r1,96		; 60h
	lwz          r12,-8(r1)
	mtlr         r12
	blr
$M76605:
; End code for function: ?Trainer413307D9@@YAXXZ
?Trainer413307D9@@YAXXZ ENDP
							; Trainer413307D9
PUBLIC	??_C@_1BAG@LFBAHOLL@A?$AAl?$AAa?$AAn?$AA?5?$AAW?$AAa?$AAk?$AAe?$AA?5?$AAA?$AAm?$AAe?$AAr?$AAi?$AAc?$AAa?$AAn?$AA?5?$AAN?$AAi?$AAg?$AAh?$AAt?$AAm?$AAa?$AAr?$AAe?$AA?5?$AA?$CL?$AA4?$AA?$AN?$AA@ ; `string'
PUBLIC	?Trainer58411233@@YAXXZ				; Trainer58411233
;	COMDAT .pdata
; File c:\users\t3fur\desktop\viper engine 1.4\trainer\alan wake american nightmare.h
.pdata	SEGMENT
$T76612	DD	?Trainer58411233@@YAXXZ
	DD	040001903H
;	COMDAT ??_C@_1BAG@LFBAHOLL@A?$AAl?$AAa?$AAn?$AA?5?$AAW?$AAa?$AAk?$AAe?$AA?5?$AAA?$AAm?$AAe?$AAr?$AAi?$AAc?$AAa?$AAn?$AA?5?$AAN?$AAi?$AAg?$AAh?$AAt?$AAm?$AAa?$AAr?$AAe?$AA?5?$AA?$CL?$AA4?$AA?$AN?$AA@
.rdata	SEGMENT
??_C@_1BAG@LFBAHOLL@A?$AAl?$AAa?$AAn?$AA?5?$AAW?$AAa?$AAk?$AAe?$AA?5?$AAA?$AAm?$AAe?$AAr?$AAi?$AAc?$AAa?$AAn?$AA?5?$AAN?$AAi?$AAg?$AAh?$AAt?$AAm?$AAa?$AAr?$AAe?$AA?5?$AA?$CL?$AA4?$AA?$AN?$AA@ DB 00H
	DB	'A', 00H, 'l', 00H, 'a', 00H, 'n', 00H, ' ', 00H, 'W', 00H, 'a'
	DB	00H, 'k', 00H, 'e', 00H, ' ', 00H, 'A', 00H, 'm', 00H, 'e', 00H
	DB	'r', 00H, 'i', 00H, 'c', 00H, 'a', 00H, 'n', 00H, ' ', 00H, 'N'
	DB	00H, 'i', 00H, 'g', 00H, 'h', 00H, 't', 00H, 'm', 00H, 'a', 00H
	DB	'r', 00H, 'e', 00H, ' ', 00H, '+', 00H, '4', 00H, 0dH, 00H, 0aH
	DB	00H, '~', 00H, '~', 00H, '~', 00H, '~', 00H, '~', 00H, '~', 00H
	DB	'~', 00H, '~', 00H, '~', 00H, '~', 00H, '~', 00H, '~', 00H, '~'
	DB	00H, '~', 00H, '~', 00H, '~', 00H, '~', 00H, '~', 00H, '~', 00H
	DB	'~', 00H, '~', 00H, '~', 00H, '~', 00H, '~', 00H, '~', 00H, 0dH
	DB	00H, 0aH, 00H, 'V', 00H, 'i', 00H, 'e', 00H, 'w', 00H, ' ', 00H
	DB	'A', 00H, 'v', 00H, 'a', 00H, 'i', 00H, 'l', 00H, 'a', 00H, 'b'
	DB	00H, 'l', 00H, 'e', 00H, ' ', 00H, 'C', 00H, 'o', 00H, 'd', 00H
	DB	'e', 00H, 's', 00H, ':', 00H, ' ', 00H, 'D', 00H, 'P', 00H, 'A'
	DB	00H, 'D', 00H, '-', 00H, 'D', 00H, 'O', 00H, 'W', 00H, 'N', 00H
	DB	'(', 00H, 'x', 00H, '4', 00H, ')', 00H, 0dH, 00H, 0aH, 00H, 'A'
	DB	00H, 'c', 00H, 't', 00H, 'i', 00H, 'v', 00H, 'a', 00H, 't', 00H
	DB	'e', 00H, ' ', 00H, 'A', 00H, 'l', 00H, 'l', 00H, ' ', 00H, 'C'
	DB	00H, 'o', 00H, 'd', 00H, 'e', 00H, 's', 00H, ':', 00H, ' ', 00H
	DB	'D', 00H, 'P', 00H, 'A', 00H, 'D', 00H, '-', 00H, 'U', 00H, 'P'
	DB	00H, '(', 00H, 'x', 00H, '4', 00H, ')', 00H, 0dH, 00H, 0aH, 00H
	DB	00H						; `string'
; Function compile flags: /Ogsu

	.code

?Trainer58411233@@YAXXZ	PROC NEAR			; Trainer58411233, COMDAT

; Begin code for function: ?Trainer58411233@@YAXXZ
; Line 106
	mflr         r12
	stw          r12,-8(r1)
	stwu         r1,-60h(r1)
.endprolog
$M76610:
; Line 107
	lis          r9,?g_strButtons@@3PAPB_WA
	lis          r8,??_C@_1BAG@LFBAHOLL@A?$AAl?$AAa?$AAn?$AA?5?$AAW?$AAa?$AAk?$AAe?$AA?5?$AAA?$AAm?$AAe?$AAr?$AAi?$AAc?$AAa?$AAn?$AA?5?$AAN?$AAi?$AAg?$AAh?$AAt?$AAm?$AAa?$AAr?$AAe?$AA?5?$AA?$CL?$AA4?$AA?$AN?$AA@
	lis          r6,??_C@_1CK@NKCKLNAA@M?$AAo?$AAr?$AAe?$AA?5?$AAA?$AAt?$AA?5?$AAT?$AA3?$AAf?$AAu?$AAr?$AAy?$AA?4?$AAc?$AAo?$AA?4?$AAu?$AAk?$AA?$AA?$AA@
	lis          r11,?g_xol@@3U_XOVERLAPPED@@A
	lis          r10,?g_mb_result@@3U_MESSAGEBOX_RESULT@@A
	addi         r11,r11,?g_xol@@3U_XOVERLAPPED@@A
	addi         r7,r9,?g_strButtons@@3PAPB_WA
	addi         r5,r8,??_C@_1BAG@LFBAHOLL@A?$AAl?$AAa?$AAn?$AA?5?$AAW?$AAa?$AAk?$AAe?$AA?5?$AAA?$AAm?$AAe?$AAr?$AAi?$AAc?$AAa?$AAn?$AA?5?$AAN?$AAi?$AAg?$AAh?$AAt?$AAm?$AAa?$AAr?$AAe?$AA?5?$AA?$CL?$AA4?$AA?$AN?$AA@
	stw          r11,54h(r1)
	addi         r4,r6,??_C@_1CK@NKCKLNAA@M?$AAo?$AAr?$AAe?$AA?5?$AAA?$AAt?$AA?5?$AAT?$AA3?$AAf?$AAu?$AAr?$AAy?$AA?4?$AAc?$AAo?$AA?4?$AAu?$AAk?$AA?$AA?$AA@
	addi         r10,r10,?g_mb_result@@3U_MESSAGEBOX_RESULT@@A
	lis          r9,1
	li           r8,0
	li           r6,1
	li           r3,0
	bl           XShowMessageBoxUI
	lis          r11,?Prompt@@3KA
	stw          r3,?Prompt@@3KA(r11)
; Line 114
	addi         r1,r1,96		; 60h
	lwz          r12,-8(r1)
	mtlr         r12
	blr
$M76611:
; End code for function: ?Trainer58411233@@YAXXZ
?Trainer58411233@@YAXXZ ENDP
							; Trainer58411233
PUBLIC	?AlienBassCheckHealth@@YAXXZ			; AlienBassCheckHealth
; Function compile flags: /Odsu

	.code

?AlienBassCheckHealth@@YAXXZ PROC NEAR			; AlienBassCheckHealth, COMDAT

; Begin code for function: ?AlienBassCheckHealth@@YAXXZ
; File c:\users\t3fur\desktop\viper engine 1.4\trainer\alien breed assault.h
; Line 14
	lwz          r11,2D8h(r31)
; Line 16
	mflr         r14
; Line 19
	bl           ?Saveregs@@YAXXZ
; Line 23
	lis          r11,?MYPtr1@@3KA
	mr           r10,r31
	stw          r10,?MYPtr1@@3KA(r11)
; Line 26
	lis          r11,?InfHealth@@3_NA
	lbz          r11,?InfHealth@@3_NA(r11)
	cmpwi        cr6,r11,1
	bne          cr6,$LN1@AlienBassC
; Line 28
	lis          r11,?MYPtr1@@3KA
	lwz          r11,?MYPtr1@@3KA(r11)
	li           r10,100		; 64h
	stw          r10,2D8h(r11)
$LN1@AlienBassC:
; Line 31
	bl           ?Loadregs@@YAXXZ
; Line 37
	cmpwi        cr6,r11,0
; Line 38
	ble          cr6,br2
; Line 39
	lbz          r11,90h(r31)
; Line 41
	mtlr         r14
; Line 42
	lis          r14,-32031		; 82E1h
; Line 43
	ori          r14,r14,47740		; 0BA7Ch
; Line 44
	mtctr        r14
; Line 45
	bctr
br2:
; Line 48
	mtlr         r14
; Line 49
	lis          r14,-32031		; 82E1h
; Line 50
	ori          r14,r14,47844		; 0BAE4h
; Line 51
	mtctr        r14
; Line 52
	bctr
; End code for function: ?AlienBassCheckHealth@@YAXXZ
?AlienBassCheckHealth@@YAXXZ ENDP
							; AlienBassCheckHealth
PUBLIC	?AlienBassCheckAmmo@@YAXXZ			; AlienBassCheckAmmo
; Function compile flags: /Odsu

	.code

?AlienBassCheckAmmo@@YAXXZ PROC NEAR			; AlienBassCheckAmmo, COMDAT

; Begin code for function: ?AlienBassCheckAmmo@@YAXXZ
; Line 65
	lwz          r10,32Ch(r30)
; Line 67
	mflr         r15
; Line 70
	bl           ?Saveregs@@YAXXZ
; Line 74
	lis          r11,?MYPtr2@@3KA
	mr           r10,r30
	stw          r10,?MYPtr2@@3KA(r11)
; Line 77
	lis          r11,?InfAmmo@@3_NA
	lbz          r11,?InfAmmo@@3_NA(r11)
	cmpwi        cr6,r11,1
	bne          cr6,$LN1@AlienBassC@2
; Line 79
	lis          r11,?MYPtr2@@3KA
	lwz          r11,?MYPtr2@@3KA(r11)
	li           r10,999		; 3E7h
	stw          r10,32Ch(r11)
$LN1@AlienBassC@2:
; Line 82
	bl           ?Loadregs@@YAXXZ
; Line 88
	lwz          r9,2E4h(r30)
; Line 89
	add          r11,r10,r11
; Line 90
	lwz          r8,61Ch(r31)
; Line 92
	mtlr         r15
; Line 93
	lis          r15,-32031		; 82E1h
; Line 94
	ori          r15,r15,20068		; 4E64h
; Line 95
	mtctr        r15
; Line 96
	bctr
; End code for function: ?AlienBassCheckAmmo@@YAXXZ
?AlienBassCheckAmmo@@YAXXZ ENDP
							; AlienBassCheckAmmo
PUBLIC	?AlienBassCheckItem@@YAXXZ			; AlienBassCheckItem
; Function compile flags: /Odsu

	.code

?AlienBassCheckItem@@YAXXZ PROC NEAR			; AlienBassCheckItem, COMDAT

; Begin code for function: ?AlienBassCheckItem@@YAXXZ
; Line 109
	lbz          r8,261h(r10)
; Line 111
	mflr         r14
; Line 114
	bl           ?Saveregs@@YAXXZ
; Line 118
	lis          r11,?MYPtr1@@3KA
	mr           r10,r10
	stw          r10,?MYPtr1@@3KA(r11)
; Line 121
	lis          r11,?InfItems@@3_NA
	lbz          r11,?InfItems@@3_NA(r11)
	cmpwi        cr6,r11,1
	bne          cr6,$LN1@AlienBassC@3
; Line 123
	lis          r11,?MYPtr1@@3KA
	lwz          r11,?MYPtr1@@3KA(r11)
	li           r10,99		; 63h
	stw          r10,264h(r11)
$LN1@AlienBassC@3:
; Line 126
	bl           ?Loadregs@@YAXXZ
; Line 132
	lfs          fr30,268h(r10)
; Line 133
	lfs          fr29,26Ch(r10)
; Line 134
	std          r8,50h(r1)
; Line 136
	mtlr         r14
; Line 137
	lis          r14,-32031		; 82E1h
; Line 138
	ori          r14,r14,38720		; 9740h
; Line 139
	mtctr        r14
; Line 140
	bctr
; End code for function: ?AlienBassCheckItem@@YAXXZ
?AlienBassCheckItem@@YAXXZ ENDP
							; AlienBassCheckItem
PUBLIC	?AlienBassSetHooks@@YAXXZ			; AlienBassSetHooks
	.bss
addr_Items DD	01H DUP (?)
;	COMDAT .pdata
.pdata	SEGMENT
$T76625	DD	?AlienBassSetHooks@@YAXXZ
	DD	040001f05H
; Function compile flags: /Ogsu

	.code

?AlienBassSetHooks@@YAXXZ PROC NEAR			; AlienBassSetHooks, COMDAT

; Begin code for function: ?AlienBassSetHooks@@YAXXZ
; Line 149
	mflr         r12
	stw          r12,-8(r1)
	std          r30,-18h(r1)
	std          r31,-10h(r1)
	stwu         r1,-70h(r1)
.endprolog
$M76623:
; Line 150
	lis          r31,addr_Items
	lis          r11,?AlienBassCheckAmmo@@YAXXZ
	addi         r30,r31,addr_Items
	li           r5,15		; 0Fh
	addi         r4,r11,?AlienBassCheckAmmo@@YAXXZ
	lwz          r3,10h(r30)
	bl           ?Caveme@@YAXKPAXE@Z
; Line 151
	lis          r11,?AlienBassCheckHealth@@YAXXZ
	lwz          r3,65A8h(r30)
	li           r5,14		; 0Eh
	addi         r4,r11,?AlienBassCheckHealth@@YAXXZ
	bl           ?Caveme@@YAXKPAXE@Z
; Line 152
	lis          r11,?AlienBassCheckItem@@YAXXZ
	li           r5,14		; 0Eh
	lwz          r3,addr_Items(r31)
	addi         r4,r11,?AlienBassCheckItem@@YAXXZ
	bl           ?Caveme@@YAXKPAXE@Z
; Line 153
	lis          r10,?HooksSet@@3_NA
	li           r11,1
	stb          r11,?HooksSet@@3_NA(r10)
; Line 154
	addi         r1,r1,112		; 70h
	lwz          r12,-8(r1)
	mtlr         r12
	ld           r30,-18h(r1)
	ld           r31,-10h(r1)
	blr
$M76624:
; End code for function: ?AlienBassSetHooks@@YAXXZ
?AlienBassSetHooks@@YAXXZ ENDP
							; AlienBassSetHooks
PUBLIC	??_C@_1PM@HGAPBMLC@A?$AAl?$AAi?$AAe?$AAn?$AA?5?$AAB?$AAr?$AAe?$AAe?$AAd?$AA?5?$AA2?$AA?3?$AA?5?$AAA?$AAs?$AAs?$AAa?$AAu?$AAl?$AAt?$AA?5?$AA?$CL?$AA?5?$AA3?$AA?$AN?$AA?6?$AA?$HO?$AA?$HO?$AA?$HO?$AA?$HO?$AA@ ; `string'
PUBLIC	?Trainer58410A22@@YAXXZ				; Trainer58410A22
;	COMDAT .pdata
.pdata	SEGMENT
$T76631	DD	?Trainer58410A22@@YAXXZ
	DD	040001e03H
;	COMDAT ??_C@_1PM@HGAPBMLC@A?$AAl?$AAi?$AAe?$AAn?$AA?5?$AAB?$AAr?$AAe?$AAe?$AAd?$AA?5?$AA2?$AA?3?$AA?5?$AAA?$AAs?$AAs?$AAa?$AAu?$AAl?$AAt?$AA?5?$AA?$CL?$AA?5?$AA3?$AA?$AN?$AA?6?$AA?$HO?$AA?$HO?$AA?$HO?$AA?$HO?$AA@
.rdata	SEGMENT
??_C@_1PM@HGAPBMLC@A?$AAl?$AAi?$AAe?$AAn?$AA?5?$AAB?$AAr?$AAe?$AAe?$AAd?$AA?5?$AA2?$AA?3?$AA?5?$AAA?$AAs?$AAs?$AAa?$AAu?$AAl?$AAt?$AA?5?$AA?$CL?$AA?5?$AA3?$AA?$AN?$AA?6?$AA?$HO?$AA?$HO?$AA?$HO?$AA?$HO?$AA@ DB 00H
	DB	'A', 00H, 'l', 00H, 'i', 00H, 'e', 00H, 'n', 00H, ' ', 00H, 'B'
	DB	00H, 'r', 00H, 'e', 00H, 'e', 00H, 'd', 00H, ' ', 00H, '2', 00H
	DB	':', 00H, ' ', 00H, 'A', 00H, 's', 00H, 's', 00H, 'a', 00H, 'u'
	DB	00H, 'l', 00H, 't', 00H, ' ', 00H, '+', 00H, ' ', 00H, '3', 00H
	DB	0dH, 00H, 0aH, 00H, '~', 00H, '~', 00H, '~', 00H, '~', 00H, '~'
	DB	00H, '~', 00H, '~', 00H, '~', 00H, '~', 00H, '~', 00H, '~', 00H
	DB	'~', 00H, '~', 00H, '~', 00H, '~', 00H, '~', 00H, '~', 00H, '~'
	DB	00H, '~', 00H, '~', 00H, '~', 00H, '~', 00H, '~', 00H, '~', 00H
	DB	'~', 00H, 0dH, 00H, 0aH, 00H, 'V', 00H, 'i', 00H, 'e', 00H, 'w'
	DB	00H, ' ', 00H, 'A', 00H, 'v', 00H, 'a', 00H, 'i', 00H, 'l', 00H
	DB	'a', 00H, 'b', 00H, 'l', 00H, 'e', 00H, ' ', 00H, 'C', 00H, 'o'
	DB	00H, 'd', 00H, 'e', 00H, 's', 00H, ':', 00H, ' ', 00H, 'D', 00H
	DB	'P', 00H, 'A', 00H, 'D', 00H, '-', 00H, 'D', 00H, 'O', 00H, 'W'
	DB	00H, 'N', 00H, '(', 00H, 'x', 00H, '4', 00H, ')', 00H, 0dH, 00H
	DB	0aH, 00H, 'A', 00H, 'c', 00H, 't', 00H, 'i', 00H, 'v', 00H, 'a'
	DB	00H, 't', 00H, 'e', 00H, ' ', 00H, 'A', 00H, 'l', 00H, 'l', 00H
	DB	' ', 00H, 'C', 00H, 'o', 00H, 'd', 00H, 'e', 00H, 's', 00H, ':'
	DB	00H, ' ', 00H, 'D', 00H, 'P', 00H, 'A', 00H, 'D', 00H, '-', 00H
	DB	'U', 00H, 'P', 00H, '(', 00H, 'x', 00H, '4', 00H, ')', 00H, 0dH
	DB	00H, 0aH, 00H, 00H				; `string'
; Function compile flags: /Ogsu

	.code

?Trainer58410A22@@YAXXZ	PROC NEAR			; Trainer58410A22, COMDAT

; Begin code for function: ?Trainer58410A22@@YAXXZ
; Line 157
	mflr         r12
	stw          r12,-8(r1)
	stwu         r1,-60h(r1)
.endprolog
$M76629:
; Line 158
	lis          r9,?g_strButtons@@3PAPB_WA
	lis          r8,??_C@_1PM@HGAPBMLC@A?$AAl?$AAi?$AAe?$AAn?$AA?5?$AAB?$AAr?$AAe?$AAe?$AAd?$AA?5?$AA2?$AA?3?$AA?5?$AAA?$AAs?$AAs?$AAa?$AAu?$AAl?$AAt?$AA?5?$AA?$CL?$AA?5?$AA3?$AA?$AN?$AA?6?$AA?$HO?$AA?$HO?$AA?$HO?$AA?$HO?$AA@
	lis          r6,??_C@_1CK@NNKGKBGB@M?$AAo?$AAr?$AAe?$AA?5?$AAa?$AAt?$AA?5?$AAT?$AA3?$AAf?$AAu?$AAr?$AAy?$AA?4?$AAc?$AAo?$AA?4?$AAu?$AAk?$AA?$AA?$AA@
	lis          r11,?g_xol@@3U_XOVERLAPPED@@A
	lis          r10,?g_mb_result@@3U_MESSAGEBOX_RESULT@@A
	addi         r11,r11,?g_xol@@3U_XOVERLAPPED@@A
	addi         r7,r9,?g_strButtons@@3PAPB_WA
	addi         r5,r8,??_C@_1PM@HGAPBMLC@A?$AAl?$AAi?$AAe?$AAn?$AA?5?$AAB?$AAr?$AAe?$AAe?$AAd?$AA?5?$AA2?$AA?3?$AA?5?$AAA?$AAs?$AAs?$AAa?$AAu?$AAl?$AAt?$AA?5?$AA?$CL?$AA?5?$AA3?$AA?$AN?$AA?6?$AA?$HO?$AA?$HO?$AA?$HO?$AA?$HO?$AA@
	stw          r11,54h(r1)
	addi         r4,r6,??_C@_1CK@NNKGKBGB@M?$AAo?$AAr?$AAe?$AA?5?$AAa?$AAt?$AA?5?$AAT?$AA3?$AAf?$AAu?$AAr?$AAy?$AA?4?$AAc?$AAo?$AA?4?$AAu?$AAk?$AA?$AA?$AA@
	addi         r10,r10,?g_mb_result@@3U_MESSAGEBOX_RESULT@@A
	lis          r9,1
	li           r8,0
	li           r6,1
	li           r3,0
	bl           XShowMessageBoxUI
; Line 159
	lis          r11,?HooksSet@@3_NA
	lis          r10,?Prompt@@3KA
	lbz          r11,?HooksSet@@3_NA(r11)
	stw          r3,?Prompt@@3KA(r10)
	cmplwi       r11,0
	bne          $LN1@Trainer584@2
; Line 161
	bl           ?AlienBassSetHooks@@YAXXZ
$LN1@Trainer584@2:
; Line 163
	addi         r1,r1,96		; 60h
	lwz          r12,-8(r1)
	mtlr         r12
	blr
$M76630:
; End code for function: ?Trainer58410A22@@YAXXZ
?Trainer58410A22@@YAXXZ ENDP
							; Trainer58410A22
PUBLIC	?AlienBdecCheckHealth@@YAXXZ			; AlienBdecCheckHealth
; Function compile flags: /Odsu

	.code

?AlienBdecCheckHealth@@YAXXZ PROC NEAR			; AlienBdecCheckHealth, COMDAT

; Begin code for function: ?AlienBdecCheckHealth@@YAXXZ
; File c:\users\t3fur\desktop\viper engine 1.4\trainer\alien breed descent.h
; Line 14
	lwz          r11,2DCh(r31)
; Line 16
	mflr         r14
; Line 19
	bl           ?Saveregs@@YAXXZ
; Line 23
	lis          r11,?MYPtr1@@3KA
	mr           r10,r31
	stw          r10,?MYPtr1@@3KA(r11)
; Line 26
	lis          r11,?InfHealth@@3_NA
	lbz          r11,?InfHealth@@3_NA(r11)
	cmpwi        cr6,r11,1
	bne          cr6,$LN1@AlienBdecC
; Line 28
	lis          r11,?MYPtr1@@3KA
	lwz          r11,?MYPtr1@@3KA(r11)
	li           r10,100		; 64h
	stw          r10,2DCh(r11)
$LN1@AlienBdecC:
; Line 31
	bl           ?Loadregs@@YAXXZ
; Line 37
	cmpwi        cr6,r11,0
; Line 38
	ble          cr6,br2
; Line 39
	lbz          r11,90h(r31)
; Line 41
	mtlr         r14
; Line 42
	lis          r14,-32032		; 82E0h
; Line 43
	ori          r14,r14,40060		; 9C7Ch
; Line 44
	mtctr        r14
; Line 45
	bctr
br2:
; Line 48
	mtlr         r14
; Line 49
	lis          r14,-32032		; 82E0h
; Line 50
	ori          r14,r14,40164		; 9CE4h
; Line 51
	mtctr        r14
; Line 52
	bctr
; End code for function: ?AlienBdecCheckHealth@@YAXXZ
?AlienBdecCheckHealth@@YAXXZ ENDP
							; AlienBdecCheckHealth
PUBLIC	?AlienBdecCheckAmmo@@YAXXZ			; AlienBdecCheckAmmo
; Function compile flags: /Odsu

	.code

?AlienBdecCheckAmmo@@YAXXZ PROC NEAR			; AlienBdecCheckAmmo, COMDAT

; Begin code for function: ?AlienBdecCheckAmmo@@YAXXZ
; Line 66
	lwz          r10,330h(r30)
; Line 67
	mflr         r15
; Line 70
	bl           ?Saveregs@@YAXXZ
; Line 74
	lis          r11,?MYPtr2@@3KA
	mr           r10,r30
	stw          r10,?MYPtr2@@3KA(r11)
; Line 77
	lis          r11,?InfAmmo@@3_NA
	lbz          r11,?InfAmmo@@3_NA(r11)
	cmpwi        cr6,r11,1
	bne          cr6,$LN1@AlienBdecC@2
; Line 79
	lis          r11,?MYPtr2@@3KA
	lwz          r11,?MYPtr2@@3KA(r11)
	li           r10,999		; 3E7h
	stw          r10,330h(r11)
$LN1@AlienBdecC@2:
; Line 82
	bl           ?Loadregs@@YAXXZ
; Line 88
	lwz          r9,2E8h(r30)
; Line 89
	add          r11,r10,r11
; Line 90
	lwz          r8,61Ch(r31)
; Line 92
	mtlr         r15
; Line 93
	lis          r15,-32032		; 82E0h
; Line 94
	ori          r15,r15,12348		; 303Ch
; Line 95
	mtctr        r15
; Line 96
	bctr
; End code for function: ?AlienBdecCheckAmmo@@YAXXZ
?AlienBdecCheckAmmo@@YAXXZ ENDP
							; AlienBdecCheckAmmo
PUBLIC	?AlienBdecCheckItem@@YAXXZ			; AlienBdecCheckItem
; Function compile flags: /Odsu

	.code

?AlienBdecCheckItem@@YAXXZ PROC NEAR			; AlienBdecCheckItem, COMDAT

; Begin code for function: ?AlienBdecCheckItem@@YAXXZ
; Line 109
	lbz          r8,265h(r10)
; Line 111
	mflr         r14
; Line 114
	bl           ?Saveregs@@YAXXZ
; Line 118
	lis          r11,?MYPtr1@@3KA
	mr           r10,r10
	stw          r10,?MYPtr1@@3KA(r11)
; Line 121
	lis          r11,?InfItems@@3_NA
	lbz          r11,?InfItems@@3_NA(r11)
	cmpwi        cr6,r11,1
	bne          cr6,$LN1@AlienBdecC@3
; Line 123
	lis          r11,?MYPtr1@@3KA
	lwz          r11,?MYPtr1@@3KA(r11)
	li           r10,99		; 63h
	stw          r10,268h(r11)
$LN1@AlienBdecC@3:
; Line 126
	bl           ?Loadregs@@YAXXZ
; Line 132
	lfs          fr30,26Ch(r10)
; Line 133
	lfs          fr29,270h(r10)
; Line 134
	std          r8,50h(r1)
; Line 136
	mtlr         r14
; Line 137
	lis          r14,-32032		; 82E0h
; Line 138
	ori          r14,r14,31000		; 7918h
; Line 139
	mtctr        r14
; Line 140
	bctr
; End code for function: ?AlienBdecCheckItem@@YAXXZ
?AlienBdecCheckItem@@YAXXZ ENDP
							; AlienBdecCheckItem
PUBLIC	?AlienBdecSetHooks@@YAXXZ			; AlienBdecSetHooks
;	COMDAT .pdata
.pdata	SEGMENT
$T76644	DD	?AlienBdecSetHooks@@YAXXZ
	DD	040001f05H
; Function compile flags: /Ogsu

	.code

?AlienBdecSetHooks@@YAXXZ PROC NEAR			; AlienBdecSetHooks, COMDAT

; Begin code for function: ?AlienBdecSetHooks@@YAXXZ
; Line 149
	mflr         r12
	stw          r12,-8(r1)
	std          r30,-18h(r1)
	std          r31,-10h(r1)
	stwu         r1,-70h(r1)
.endprolog
$M76642:
; Line 150
	lis          r31,addr_Items
	lis          r11,?AlienBdecCheckAmmo@@YAXXZ
	addi         r30,r31,addr_Items
	li           r5,15		; 0Fh
	addi         r4,r11,?AlienBdecCheckAmmo@@YAXXZ
	lwz          r3,10h(r30)
	bl           ?Caveme@@YAXKPAXE@Z
; Line 151
	lis          r11,?AlienBdecCheckHealth@@YAXXZ
	lwz          r3,65A8h(r30)
	li           r5,14		; 0Eh
	addi         r4,r11,?AlienBdecCheckHealth@@YAXXZ
	bl           ?Caveme@@YAXKPAXE@Z
; Line 152
	lis          r11,?AlienBdecCheckItem@@YAXXZ
	li           r5,14		; 0Eh
	lwz          r3,addr_Items(r31)
	addi         r4,r11,?AlienBdecCheckItem@@YAXXZ
	bl           ?Caveme@@YAXKPAXE@Z
; Line 153
	lis          r10,?HooksSet@@3_NA
	li           r11,1
	stb          r11,?HooksSet@@3_NA(r10)
; Line 154
	addi         r1,r1,112		; 70h
	lwz          r12,-8(r1)
	mtlr         r12
	ld           r30,-18h(r1)
	ld           r31,-10h(r1)
	blr
$M76643:
; End code for function: ?AlienBdecSetHooks@@YAXXZ
?AlienBdecSetHooks@@YAXXZ ENDP
							; AlienBdecSetHooks
PUBLIC	??_C@_1PM@MJKJCAJB@A?$AAl?$AAi?$AAe?$AAn?$AA?5?$AAB?$AAr?$AAe?$AAe?$AAd?$AA?5?$AA3?$AA?3?$AA?5?$AAD?$AAe?$AAs?$AAc?$AAe?$AAn?$AAt?$AA?5?$AA?$CL?$AA?5?$AA3?$AA?$AN?$AA?6?$AA?$HO?$AA?$HO?$AA?$HO?$AA?$HO?$AA@ ; `string'
PUBLIC	?Trainer58410AA3@@YAXXZ				; Trainer58410AA3
;	COMDAT .pdata
.pdata	SEGMENT
$T76650	DD	?Trainer58410AA3@@YAXXZ
	DD	040001e03H
;	COMDAT ??_C@_1PM@MJKJCAJB@A?$AAl?$AAi?$AAe?$AAn?$AA?5?$AAB?$AAr?$AAe?$AAe?$AAd?$AA?5?$AA3?$AA?3?$AA?5?$AAD?$AAe?$AAs?$AAc?$AAe?$AAn?$AAt?$AA?5?$AA?$CL?$AA?5?$AA3?$AA?$AN?$AA?6?$AA?$HO?$AA?$HO?$AA?$HO?$AA?$HO?$AA@
.rdata	SEGMENT
??_C@_1PM@MJKJCAJB@A?$AAl?$AAi?$AAe?$AAn?$AA?5?$AAB?$AAr?$AAe?$AAe?$AAd?$AA?5?$AA3?$AA?3?$AA?5?$AAD?$AAe?$AAs?$AAc?$AAe?$AAn?$AAt?$AA?5?$AA?$CL?$AA?5?$AA3?$AA?$AN?$AA?6?$AA?$HO?$AA?$HO?$AA?$HO?$AA?$HO?$AA@ DB 00H
	DB	'A', 00H, 'l', 00H, 'i', 00H, 'e', 00H, 'n', 00H, ' ', 00H, 'B'
	DB	00H, 'r', 00H, 'e', 00H, 'e', 00H, 'd', 00H, ' ', 00H, '3', 00H
	DB	':', 00H, ' ', 00H, 'D', 00H, 'e', 00H, 's', 00H, 'c', 00H, 'e'
	DB	00H, 'n', 00H, 't', 00H, ' ', 00H, '+', 00H, ' ', 00H, '3', 00H
	DB	0dH, 00H, 0aH, 00H, '~', 00H, '~', 00H, '~', 00H, '~', 00H, '~'
	DB	00H, '~', 00H, '~', 00H, '~', 00H, '~', 00H, '~', 00H, '~', 00H
	DB	'~', 00H, '~', 00H, '~', 00H, '~', 00H, '~', 00H, '~', 00H, '~'
	DB	00H, '~', 00H, '~', 00H, '~', 00H, '~', 00H, '~', 00H, '~', 00H
	DB	'~', 00H, 0dH, 00H, 0aH, 00H, 'V', 00H, 'i', 00H, 'e', 00H, 'w'
	DB	00H, ' ', 00H, 'A', 00H, 'v', 00H, 'a', 00H, 'i', 00H, 'l', 00H
	DB	'a', 00H, 'b', 00H, 'l', 00H, 'e', 00H, ' ', 00H, 'C', 00H, 'o'
	DB	00H, 'd', 00H, 'e', 00H, 's', 00H, ':', 00H, ' ', 00H, 'D', 00H
	DB	'P', 00H, 'A', 00H, 'D', 00H, '-', 00H, 'D', 00H, 'O', 00H, 'W'
	DB	00H, 'N', 00H, '(', 00H, 'x', 00H, '4', 00H, ')', 00H, 0dH, 00H
	DB	0aH, 00H, 'A', 00H, 'c', 00H, 't', 00H, 'i', 00H, 'v', 00H, 'a'
	DB	00H, 't', 00H, 'e', 00H, ' ', 00H, 'A', 00H, 'l', 00H, 'l', 00H
	DB	' ', 00H, 'C', 00H, 'o', 00H, 'd', 00H, 'e', 00H, 's', 00H, ':'
	DB	00H, ' ', 00H, 'D', 00H, 'P', 00H, 'A', 00H, 'D', 00H, '-', 00H
	DB	'U', 00H, 'P', 00H, '(', 00H, 'x', 00H, '4', 00H, ')', 00H, 0dH
	DB	00H, 0aH, 00H, 00H				; `string'
; Function compile flags: /Ogsu

	.code

?Trainer58410AA3@@YAXXZ	PROC NEAR			; Trainer58410AA3, COMDAT

; Begin code for function: ?Trainer58410AA3@@YAXXZ
; Line 157
	mflr         r12
	stw          r12,-8(r1)
	stwu         r1,-60h(r1)
.endprolog
$M76648:
; Line 158
	lis          r9,?g_strButtons@@3PAPB_WA
	lis          r8,??_C@_1PM@MJKJCAJB@A?$AAl?$AAi?$AAe?$AAn?$AA?5?$AAB?$AAr?$AAe?$AAe?$AAd?$AA?5?$AA3?$AA?3?$AA?5?$AAD?$AAe?$AAs?$AAc?$AAe?$AAn?$AAt?$AA?5?$AA?$CL?$AA?5?$AA3?$AA?$AN?$AA?6?$AA?$HO?$AA?$HO?$AA?$HO?$AA?$HO?$AA@
	lis          r6,??_C@_1CK@NNKGKBGB@M?$AAo?$AAr?$AAe?$AA?5?$AAa?$AAt?$AA?5?$AAT?$AA3?$AAf?$AAu?$AAr?$AAy?$AA?4?$AAc?$AAo?$AA?4?$AAu?$AAk?$AA?$AA?$AA@
	lis          r11,?g_xol@@3U_XOVERLAPPED@@A
	lis          r10,?g_mb_result@@3U_MESSAGEBOX_RESULT@@A
	addi         r11,r11,?g_xol@@3U_XOVERLAPPED@@A
	addi         r7,r9,?g_strButtons@@3PAPB_WA
	addi         r5,r8,??_C@_1PM@MJKJCAJB@A?$AAl?$AAi?$AAe?$AAn?$AA?5?$AAB?$AAr?$AAe?$AAe?$AAd?$AA?5?$AA3?$AA?3?$AA?5?$AAD?$AAe?$AAs?$AAc?$AAe?$AAn?$AAt?$AA?5?$AA?$CL?$AA?5?$AA3?$AA?$AN?$AA?6?$AA?$HO?$AA?$HO?$AA?$HO?$AA?$HO?$AA@
	stw          r11,54h(r1)
	addi         r4,r6,??_C@_1CK@NNKGKBGB@M?$AAo?$AAr?$AAe?$AA?5?$AAa?$AAt?$AA?5?$AAT?$AA3?$AAf?$AAu?$AAr?$AAy?$AA?4?$AAc?$AAo?$AA?4?$AAu?$AAk?$AA?$AA?$AA@
	addi         r10,r10,?g_mb_result@@3U_MESSAGEBOX_RESULT@@A
	lis          r9,1
	li           r8,0
	li           r6,1
	li           r3,0
	bl           XShowMessageBoxUI
; Line 159
	lis          r11,?HooksSet@@3_NA
	lis          r10,?Prompt@@3KA
	lbz          r11,?HooksSet@@3_NA(r11)
	stw          r3,?Prompt@@3KA(r10)
	cmplwi       r11,0
	bne          $LN1@Trainer584@3
; Line 161
	bl           ?AlienBdecSetHooks@@YAXXZ
$LN1@Trainer584@3:
; Line 163
	addi         r1,r1,96		; 60h
	lwz          r12,-8(r1)
	mtlr         r12
	blr
$M76649:
; End code for function: ?Trainer58410AA3@@YAXXZ
?Trainer58410AA3@@YAXXZ ENDP
							; Trainer58410AA3
PUBLIC	?AlienBevoCheckHealth@@YAXXZ			; AlienBevoCheckHealth
; Function compile flags: /Odsu

	.code

?AlienBevoCheckHealth@@YAXXZ PROC NEAR			; AlienBevoCheckHealth, COMDAT

; Begin code for function: ?AlienBevoCheckHealth@@YAXXZ
; File c:\users\t3fur\desktop\viper engine 1.4\trainer\alien breed evo.h
; Line 14
	lwz          r11,2C8h(r31)
; Line 16
	mflr         r14
; Line 19
	bl           ?Saveregs@@YAXXZ
; Line 23
	lis          r11,?MYPtr1@@3KA
	mr           r10,r31
	stw          r10,?MYPtr1@@3KA(r11)
; Line 26
	lis          r11,?InfHealth@@3_NA
	lbz          r11,?InfHealth@@3_NA(r11)
	cmpwi        cr6,r11,1
	bne          cr6,$LN1@AlienBevoC
; Line 28
	lis          r11,?MYPtr1@@3KA
	lwz          r11,?MYPtr1@@3KA(r11)
	li           r10,100		; 64h
	stw          r10,2C8h(r11)
$LN1@AlienBevoC:
; Line 31
	bl           ?Loadregs@@YAXXZ
; Line 37
	cmpwi        cr6,r11,0
; Line 38
	ble          cr6,br2
; Line 39
	lbz          r11,90h(r31)
; Line 41
	mtlr         r14
; Line 42
	lis          r14,-32051		; 82CDh
; Line 43
	ori          r14,r14,6036		; 1794h
; Line 44
	mtctr        r14
; Line 45
	bctr
br2:
; Line 48
	mtlr         r14
; Line 49
	lis          r14,-32051		; 82CDh
; Line 50
	ori          r14,r14,6140		; 17FCh
; Line 51
	mtctr        r14
; Line 52
	bctr
; End code for function: ?AlienBevoCheckHealth@@YAXXZ
?AlienBevoCheckHealth@@YAXXZ ENDP
							; AlienBevoCheckHealth
PUBLIC	?AlienBevoCheckAmmo@@YAXXZ			; AlienBevoCheckAmmo
; Function compile flags: /Odsu

	.code

?AlienBevoCheckAmmo@@YAXXZ PROC NEAR			; AlienBevoCheckAmmo, COMDAT

; Begin code for function: ?AlienBevoCheckAmmo@@YAXXZ
; Line 65
	lwz          r11,31Ch(r30)
; Line 67
	mflr         r15
; Line 70
	bl           ?Saveregs@@YAXXZ
; Line 74
	lis          r11,?MYPtr2@@3KA
	mr           r10,r30
	stw          r10,?MYPtr2@@3KA(r11)
; Line 77
	lis          r11,?InfAmmo@@3_NA
	lbz          r11,?InfAmmo@@3_NA(r11)
	cmpwi        cr6,r11,1
	bne          cr6,$LN1@AlienBevoC@2
; Line 79
	lis          r11,?MYPtr2@@3KA
	lwz          r11,?MYPtr2@@3KA(r11)
	li           r10,999		; 3E7h
	stw          r10,31Ch(r11)
$LN1@AlienBevoC@2:
; Line 82
	bl           ?Loadregs@@YAXXZ
; Line 88
	lwz          r9,2D4h(r30)
; Line 89
	add          r11,r10,r11
; Line 90
	lwz          r8,5F4h(r31)
; Line 92
	mtlr         r15
; Line 93
	lis          r15,-32052		; 82CCh
; Line 94
	ori          r15,r15,47392		; 0B920h
; Line 95
	mtctr        r15
; Line 96
	bctr
; End code for function: ?AlienBevoCheckAmmo@@YAXXZ
?AlienBevoCheckAmmo@@YAXXZ ENDP
							; AlienBevoCheckAmmo
PUBLIC	?AlienBevoCheckItem@@YAXXZ			; AlienBevoCheckItem
; Function compile flags: /Odsu

	.code

?AlienBevoCheckItem@@YAXXZ PROC NEAR			; AlienBevoCheckItem, COMDAT

; Begin code for function: ?AlienBevoCheckItem@@YAXXZ
; Line 109
	lbz          r8,251h(r10)
; Line 111
	mflr         r14
; Line 114
	bl           ?Saveregs@@YAXXZ
; Line 118
	lis          r11,?MYPtr1@@3KA
	mr           r10,r10
	stw          r10,?MYPtr1@@3KA(r11)
; Line 121
	lis          r11,?InfItems@@3_NA
	lbz          r11,?InfItems@@3_NA(r11)
	cmpwi        cr6,r11,1
	bne          cr6,$LN1@AlienBevoC@3
; Line 123
	lis          r11,?MYPtr1@@3KA
	lwz          r11,?MYPtr1@@3KA(r11)
	li           r10,99		; 63h
	stw          r10,254h(r11)
$LN1@AlienBevoC@3:
; Line 126
	bl           ?Loadregs@@YAXXZ
; Line 132
	lfs          fr1,258h(r10)
; Line 133
	lfs          fr31,25Ch(r10)
; Line 134
	std          r8,50h(r1)
; Line 136
	mtlr         r14
; Line 137
	lis          r14,-32052		; 82CCh
; Line 138
	ori          r14,r14,63716		; 0F8E4h
; Line 139
	mtctr        r14
; Line 140
	bctr
; End code for function: ?AlienBevoCheckItem@@YAXXZ
?AlienBevoCheckItem@@YAXXZ ENDP
							; AlienBevoCheckItem
PUBLIC	?AlienBevoSetHooks@@YAXXZ			; AlienBevoSetHooks
;	COMDAT .pdata
.pdata	SEGMENT
$T76663	DD	?AlienBevoSetHooks@@YAXXZ
	DD	040001f05H
; Function compile flags: /Ogsu

	.code

?AlienBevoSetHooks@@YAXXZ PROC NEAR			; AlienBevoSetHooks, COMDAT

; Begin code for function: ?AlienBevoSetHooks@@YAXXZ
; Line 149
	mflr         r12
	stw          r12,-8(r1)
	std          r30,-18h(r1)
	std          r31,-10h(r1)
	stwu         r1,-70h(r1)
.endprolog
$M76661:
; Line 150
	lis          r31,addr_Items
	lis          r11,?AlienBevoCheckAmmo@@YAXXZ
	addi         r30,r31,addr_Items
	li           r5,15		; 0Fh
	addi         r4,r11,?AlienBevoCheckAmmo@@YAXXZ
	lwz          r3,10h(r30)
	bl           ?Caveme@@YAXKPAXE@Z
; Line 151
	lis          r11,?AlienBevoCheckHealth@@YAXXZ
	lwz          r3,65A8h(r30)
	li           r5,14		; 0Eh
	addi         r4,r11,?AlienBevoCheckHealth@@YAXXZ
	bl           ?Caveme@@YAXKPAXE@Z
; Line 152
	lis          r11,?AlienBevoCheckItem@@YAXXZ
	li           r5,14		; 0Eh
	lwz          r3,addr_Items(r31)
	addi         r4,r11,?AlienBevoCheckItem@@YAXXZ
	bl           ?Caveme@@YAXKPAXE@Z
; Line 153
	lis          r10,?HooksSet@@3_NA
	li           r11,1
	stb          r11,?HooksSet@@3_NA(r10)
; Line 154
	addi         r1,r1,112		; 70h
	lwz          r12,-8(r1)
	mtlr         r12
	ld           r30,-18h(r1)
	ld           r31,-10h(r1)
	blr
$M76662:
; End code for function: ?AlienBevoSetHooks@@YAXXZ
?AlienBevoSetHooks@@YAXXZ ENDP
							; AlienBevoSetHooks
PUBLIC	??_C@_1PK@IHCANNIF@A?$AAl?$AAi?$AAe?$AAn?$AA?5?$AAB?$AAr?$AAe?$AAe?$AAd?$AA?5?$AAE?$AAv?$AAo?$AAl?$AAu?$AAt?$AAi?$AAo?$AAn?$AA?5?$AA?$CL?$AA?5?$AA3?$AA?$AN?$AA?6?$AA?$HO?$AA?$HO?$AA?$HO?$AA?$HO?$AA?$HO?$AA@ ; `string'
PUBLIC	?Trainer58410964@@YAXXZ				; Trainer58410964
;	COMDAT .pdata
.pdata	SEGMENT
$T76669	DD	?Trainer58410964@@YAXXZ
	DD	040001e03H
;	COMDAT ??_C@_1PK@IHCANNIF@A?$AAl?$AAi?$AAe?$AAn?$AA?5?$AAB?$AAr?$AAe?$AAe?$AAd?$AA?5?$AAE?$AAv?$AAo?$AAl?$AAu?$AAt?$AAi?$AAo?$AAn?$AA?5?$AA?$CL?$AA?5?$AA3?$AA?$AN?$AA?6?$AA?$HO?$AA?$HO?$AA?$HO?$AA?$HO?$AA?$HO?$AA@
.rdata	SEGMENT
??_C@_1PK@IHCANNIF@A?$AAl?$AAi?$AAe?$AAn?$AA?5?$AAB?$AAr?$AAe?$AAe?$AAd?$AA?5?$AAE?$AAv?$AAo?$AAl?$AAu?$AAt?$AAi?$AAo?$AAn?$AA?5?$AA?$CL?$AA?5?$AA3?$AA?$AN?$AA?6?$AA?$HO?$AA?$HO?$AA?$HO?$AA?$HO?$AA?$HO?$AA@ DB 00H
	DB	'A', 00H, 'l', 00H, 'i', 00H, 'e', 00H, 'n', 00H, ' ', 00H, 'B'
	DB	00H, 'r', 00H, 'e', 00H, 'e', 00H, 'd', 00H, ' ', 00H, 'E', 00H
	DB	'v', 00H, 'o', 00H, 'l', 00H, 'u', 00H, 't', 00H, 'i', 00H, 'o'
	DB	00H, 'n', 00H, ' ', 00H, '+', 00H, ' ', 00H, '3', 00H, 0dH, 00H
	DB	0aH, 00H, '~', 00H, '~', 00H, '~', 00H, '~', 00H, '~', 00H, '~'
	DB	00H, '~', 00H, '~', 00H, '~', 00H, '~', 00H, '~', 00H, '~', 00H
	DB	'~', 00H, '~', 00H, '~', 00H, '~', 00H, '~', 00H, '~', 00H, '~'
	DB	00H, '~', 00H, '~', 00H, '~', 00H, '~', 00H, '~', 00H, '~', 00H
	DB	0dH, 00H, 0aH, 00H, 'V', 00H, 'i', 00H, 'e', 00H, 'w', 00H, ' '
	DB	00H, 'A', 00H, 'v', 00H, 'a', 00H, 'i', 00H, 'l', 00H, 'a', 00H
	DB	'b', 00H, 'l', 00H, 'e', 00H, ' ', 00H, 'C', 00H, 'o', 00H, 'd'
	DB	00H, 'e', 00H, 's', 00H, ':', 00H, ' ', 00H, 'D', 00H, 'P', 00H
	DB	'A', 00H, 'D', 00H, '-', 00H, 'D', 00H, 'O', 00H, 'W', 00H, 'N'
	DB	00H, '(', 00H, 'x', 00H, '4', 00H, ')', 00H, 0dH, 00H, 0aH, 00H
	DB	'A', 00H, 'c', 00H, 't', 00H, 'i', 00H, 'v', 00H, 'a', 00H, 't'
	DB	00H, 'e', 00H, ' ', 00H, 'A', 00H, 'l', 00H, 'l', 00H, ' ', 00H
	DB	'C', 00H, 'o', 00H, 'd', 00H, 'e', 00H, 's', 00H, ':', 00H, ' '
	DB	00H, 'D', 00H, 'P', 00H, 'A', 00H, 'D', 00H, '-', 00H, 'U', 00H
	DB	'P', 00H, '(', 00H, 'x', 00H, '4', 00H, ')', 00H, 0dH, 00H, 0aH
	DB	00H, 00H					; `string'
; Function compile flags: /Ogsu

	.code

?Trainer58410964@@YAXXZ	PROC NEAR			; Trainer58410964, COMDAT

; Begin code for function: ?Trainer58410964@@YAXXZ
; Line 157
	mflr         r12
	stw          r12,-8(r1)
	stwu         r1,-60h(r1)
.endprolog
$M76667:
; Line 158
	lis          r9,?g_strButtons@@3PAPB_WA
	lis          r8,??_C@_1PK@IHCANNIF@A?$AAl?$AAi?$AAe?$AAn?$AA?5?$AAB?$AAr?$AAe?$AAe?$AAd?$AA?5?$AAE?$AAv?$AAo?$AAl?$AAu?$AAt?$AAi?$AAo?$AAn?$AA?5?$AA?$CL?$AA?5?$AA3?$AA?$AN?$AA?6?$AA?$HO?$AA?$HO?$AA?$HO?$AA?$HO?$AA?$HO?$AA@
	lis          r6,??_C@_1CK@NNKGKBGB@M?$AAo?$AAr?$AAe?$AA?5?$AAa?$AAt?$AA?5?$AAT?$AA3?$AAf?$AAu?$AAr?$AAy?$AA?4?$AAc?$AAo?$AA?4?$AAu?$AAk?$AA?$AA?$AA@
	lis          r11,?g_xol@@3U_XOVERLAPPED@@A
	lis          r10,?g_mb_result@@3U_MESSAGEBOX_RESULT@@A
	addi         r11,r11,?g_xol@@3U_XOVERLAPPED@@A
	addi         r7,r9,?g_strButtons@@3PAPB_WA
	addi         r5,r8,??_C@_1PK@IHCANNIF@A?$AAl?$AAi?$AAe?$AAn?$AA?5?$AAB?$AAr?$AAe?$AAe?$AAd?$AA?5?$AAE?$AAv?$AAo?$AAl?$AAu?$AAt?$AAi?$AAo?$AAn?$AA?5?$AA?$CL?$AA?5?$AA3?$AA?$AN?$AA?6?$AA?$HO?$AA?$HO?$AA?$HO?$AA?$HO?$AA?$HO?$AA@
	stw          r11,54h(r1)
	addi         r4,r6,??_C@_1CK@NNKGKBGB@M?$AAo?$AAr?$AAe?$AA?5?$AAa?$AAt?$AA?5?$AAT?$AA3?$AAf?$AAu?$AAr?$AAy?$AA?4?$AAc?$AAo?$AA?4?$AAu?$AAk?$AA?$AA?$AA@
	addi         r10,r10,?g_mb_result@@3U_MESSAGEBOX_RESULT@@A
	lis          r9,1
	li           r8,0
	li           r6,1
	li           r3,0
	bl           XShowMessageBoxUI
; Line 159
	lis          r11,?HooksSet@@3_NA
	lis          r10,?Prompt@@3KA
	lbz          r11,?HooksSet@@3_NA(r11)
	stw          r3,?Prompt@@3KA(r10)
	cmplwi       r11,0
	bne          $LN1@Trainer584@4
; Line 161
	bl           ?AlienBevoSetHooks@@YAXXZ
$LN1@Trainer584@4:
; Line 163
	addi         r1,r1,96		; 60h
	lwz          r12,-8(r1)
	mtlr         r12
	blr
$M76668:
; End code for function: ?Trainer58410964@@YAXXZ
?Trainer58410964@@YAXXZ ENDP
							; Trainer58410964
PUBLIC	?ACMCheckHealth@@YAXXZ				; ACMCheckHealth
; Function compile flags: /Odsu

	.code

?ACMCheckHealth@@YAXXZ PROC NEAR				; ACMCheckHealth, COMDAT

; Begin code for function: ?ACMCheckHealth@@YAXXZ
; File c:\users\t3fur\desktop\viper engine 1.4\trainer\alien coli.h
; Line 14
	li           r10,0
; Line 15
	stw          r10,8(r11)
; Line 16
	stfs         fr1,370h(r31)
; Line 17
	mflr         r9
; Line 20
	bl           ?Saveregs@@YAXXZ
; Line 23
	lis          r11,?MYPtr1@@3KA
	mr           r10,r31
	stw          r10,?MYPtr1@@3KA(r11)
; Line 26
	lis          r11,?MYPtr1@@3KA
	lwz          r11,?MYPtr1@@3KA(r11)
	lwz          r11,154h(r11)
	cmplwi       cr6,r11,21		; 15h
	bne          cr6,$LN6@ACMCheckHe
	lis          r11,?InfHealth@@3_NA
	lbz          r11,?InfHealth@@3_NA(r11)
	cmpwi        cr6,r11,1
	bne          cr6,$LN6@ACMCheckHe
; Line 30
	lis          r11,?AlienCMXValue@@3MA
	lfs          fr0,?AlienCMXValue@@3MA(r11)
	stfs         fr0,370h(r31)
$LN6@ACMCheckHe:
; Line 65
	bl           ?Loadregs@@YAXXZ
; Line 70
	lwz          r11,0C4h(r31)
; Line 72
	mtlr         r9
; Line 73
	lis          r9,-32145		; 826Fh
; Line 74
	ori          r9,r9,36412		; 8E3Ch
; Line 75
	mtctr        r9
; Line 76
	bctr
; End code for function: ?ACMCheckHealth@@YAXXZ
?ACMCheckHealth@@YAXXZ ENDP
							; ACMCheckHealth
PUBLIC	?ACMSetHooks@@YAXXZ				; ACMSetHooks
;	COMDAT .pdata
.pdata	SEGMENT
$T76677	DD	?ACMSetHooks@@YAXXZ
	DD	040001003H
; Function compile flags: /Ogsu

	.code

?ACMSetHooks@@YAXXZ PROC NEAR				; ACMSetHooks, COMDAT

; Begin code for function: ?ACMSetHooks@@YAXXZ
; Line 86
	mflr         r12
	stw          r12,-8(r1)
	stwu         r1,-60h(r1)
.endprolog
$M76675:
; Line 87
	lis          r11,?ACMCheckHealth@@YAXXZ
	lis          r3,-32145		; 826Fh
	li           r5,9
	addi         r4,r11,?ACMCheckHealth@@YAXXZ
	ori          r3,r3,36396		; 8E2Ch
	bl           ?Caveme@@YAXKPAXE@Z
; Line 88
	lis          r10,?HooksSet@@3_NA
	li           r11,1
	stb          r11,?HooksSet@@3_NA(r10)
; Line 89
	addi         r1,r1,96		; 60h
	lwz          r12,-8(r1)
	mtlr         r12
	blr
$M76676:
; End code for function: ?ACMSetHooks@@YAXXZ
?ACMSetHooks@@YAXXZ ENDP
							; ACMSetHooks
PUBLIC	??_C@_1BAA@GLEDEGDO@A?$AAl?$AAi?$AAe?$AAn?$AAs?$AA?3?$AA?5?$AAC?$AAo?$AAl?$AAo?$AAn?$AAi?$AAa?$AAl?$AA?5?$AAM?$AAa?$AAr?$AAi?$AAn?$AAe?$AAs?$AA?5?$AA?$CL?$AA?5?$AA2?$AA?$AN?$AA?6?$AA?$HO?$AA?$HO?$AA@ ; `string'
PUBLIC	?Trainer5345080C@@YAXXZ				; Trainer5345080C
;	COMDAT .pdata
.pdata	SEGMENT
$T76683	DD	?Trainer5345080C@@YAXXZ
	DD	040001e03H
;	COMDAT ??_C@_1BAA@GLEDEGDO@A?$AAl?$AAi?$AAe?$AAn?$AAs?$AA?3?$AA?5?$AAC?$AAo?$AAl?$AAo?$AAn?$AAi?$AAa?$AAl?$AA?5?$AAM?$AAa?$AAr?$AAi?$AAn?$AAe?$AAs?$AA?5?$AA?$CL?$AA?5?$AA2?$AA?$AN?$AA?6?$AA?$HO?$AA?$HO?$AA@
.rdata	SEGMENT
??_C@_1BAA@GLEDEGDO@A?$AAl?$AAi?$AAe?$AAn?$AAs?$AA?3?$AA?5?$AAC?$AAo?$AAl?$AAo?$AAn?$AAi?$AAa?$AAl?$AA?5?$AAM?$AAa?$AAr?$AAi?$AAn?$AAe?$AAs?$AA?5?$AA?$CL?$AA?5?$AA2?$AA?$AN?$AA?6?$AA?$HO?$AA?$HO?$AA@ DB 00H
	DB	'A', 00H, 'l', 00H, 'i', 00H, 'e', 00H, 'n', 00H, 's', 00H, ':'
	DB	00H, ' ', 00H, 'C', 00H, 'o', 00H, 'l', 00H, 'o', 00H, 'n', 00H
	DB	'i', 00H, 'a', 00H, 'l', 00H, ' ', 00H, 'M', 00H, 'a', 00H, 'r'
	DB	00H, 'i', 00H, 'n', 00H, 'e', 00H, 's', 00H, ' ', 00H, '+', 00H
	DB	' ', 00H, '2', 00H, 0dH, 00H, 0aH, 00H, '~', 00H, '~', 00H, '~'
	DB	00H, '~', 00H, '~', 00H, '~', 00H, '~', 00H, '~', 00H, '~', 00H
	DB	'~', 00H, '~', 00H, '~', 00H, '~', 00H, '~', 00H, '~', 00H, '~'
	DB	00H, '~', 00H, '~', 00H, '~', 00H, '~', 00H, '~', 00H, '~', 00H
	DB	'~', 00H, '~', 00H, '~', 00H, 0dH, 00H, 0aH, 00H, 'V', 00H, 'i'
	DB	00H, 'e', 00H, 'w', 00H, ' ', 00H, 'A', 00H, 'v', 00H, 'a', 00H
	DB	'i', 00H, 'l', 00H, 'a', 00H, 'b', 00H, 'l', 00H, 'e', 00H, ' '
	DB	00H, 'C', 00H, 'o', 00H, 'd', 00H, 'e', 00H, 's', 00H, ':', 00H
	DB	' ', 00H, 'D', 00H, 'P', 00H, 'A', 00H, 'D', 00H, '-', 00H, 'D'
	DB	00H, 'O', 00H, 'W', 00H, 'N', 00H, '(', 00H, 'x', 00H, '4', 00H
	DB	')', 00H, 0dH, 00H, 0aH, 00H, 'A', 00H, 'c', 00H, 't', 00H, 'i'
	DB	00H, 'v', 00H, 'a', 00H, 't', 00H, 'e', 00H, ' ', 00H, 'A', 00H
	DB	'l', 00H, 'l', 00H, ' ', 00H, 'C', 00H, 'o', 00H, 'd', 00H, 'e'
	DB	00H, 's', 00H, ':', 00H, ' ', 00H, 'D', 00H, 'P', 00H, 'A', 00H
	DB	'D', 00H, '-', 00H, 'U', 00H, 'P', 00H, '(', 00H, 'x', 00H, '4'
	DB	00H, ')', 00H, 0dH, 00H, 0aH, 00H, 00H	; `string'
; Function compile flags: /Ogsu

	.code

?Trainer5345080C@@YAXXZ	PROC NEAR			; Trainer5345080C, COMDAT

; Begin code for function: ?Trainer5345080C@@YAXXZ
; Line 92
	mflr         r12
	stw          r12,-8(r1)
	stwu         r1,-60h(r1)
.endprolog
$M76681:
; Line 93
	lis          r9,?g_strButtons@@3PAPB_WA
	lis          r8,??_C@_1BAA@GLEDEGDO@A?$AAl?$AAi?$AAe?$AAn?$AAs?$AA?3?$AA?5?$AAC?$AAo?$AAl?$AAo?$AAn?$AAi?$AAa?$AAl?$AA?5?$AAM?$AAa?$AAr?$AAi?$AAn?$AAe?$AAs?$AA?5?$AA?$CL?$AA?5?$AA2?$AA?$AN?$AA?6?$AA?$HO?$AA?$HO?$AA@
	lis          r6,??_C@_1DC@JKLNPENH@h?$AAt?$AAt?$AAp?$AAs?$AA?3?$AA?1?$AA?1?$AAw?$AAw?$AAw?$AA?4?$AAt?$AA3?$AAf?$AAu?$AAr?$AAy?$AA?4?$AAc?$AAo?$AA?4?$AAu?$AAk?$AA?$AA?$AA@
	lis          r11,?g_xol@@3U_XOVERLAPPED@@A
	lis          r10,?g_mb_result@@3U_MESSAGEBOX_RESULT@@A
	addi         r11,r11,?g_xol@@3U_XOVERLAPPED@@A
	addi         r7,r9,?g_strButtons@@3PAPB_WA
	addi         r5,r8,??_C@_1BAA@GLEDEGDO@A?$AAl?$AAi?$AAe?$AAn?$AAs?$AA?3?$AA?5?$AAC?$AAo?$AAl?$AAo?$AAn?$AAi?$AAa?$AAl?$AA?5?$AAM?$AAa?$AAr?$AAi?$AAn?$AAe?$AAs?$AA?5?$AA?$CL?$AA?5?$AA2?$AA?$AN?$AA?6?$AA?$HO?$AA?$HO?$AA@
	stw          r11,54h(r1)
	addi         r4,r6,??_C@_1DC@JKLNPENH@h?$AAt?$AAt?$AAp?$AAs?$AA?3?$AA?1?$AA?1?$AAw?$AAw?$AAw?$AA?4?$AAt?$AA3?$AAf?$AAu?$AAr?$AAy?$AA?4?$AAc?$AAo?$AA?4?$AAu?$AAk?$AA?$AA?$AA@
	addi         r10,r10,?g_mb_result@@3U_MESSAGEBOX_RESULT@@A
	lis          r9,1
	li           r8,0
	li           r6,1
	li           r3,0
	bl           XShowMessageBoxUI
; Line 94
	lis          r11,?HooksSet@@3_NA
	lis          r10,?Prompt@@3KA
	lbz          r11,?HooksSet@@3_NA(r11)
	stw          r3,?Prompt@@3KA(r10)
	cmplwi       r11,0
	bne          $LN1@Trainer534
; Line 96
	bl           ?ACMSetHooks@@YAXXZ
$LN1@Trainer534:
; Line 98
	addi         r1,r1,96		; 60h
	lwz          r12,-8(r1)
	mtlr         r12
	blr
$M76682:
; End code for function: ?Trainer5345080C@@YAXXZ
?Trainer5345080C@@YAXXZ ENDP
							; Trainer5345080C
PUBLIC	?AlienRCheckHealth@@YAXXZ			; AlienRCheckHealth
; Function compile flags: /Odsu

	.code

?AlienRCheckHealth@@YAXXZ PROC NEAR			; AlienRCheckHealth, COMDAT

; Begin code for function: ?AlienRCheckHealth@@YAXXZ
; File c:\users\t3fur\desktop\viper engine 1.4\trainer\alien rage.h
; Line 13
	lwz          r9,304h(r11)
; Line 15
	mflr         r18
; Line 18
	bl           ?Saveregs@@YAXXZ
; Line 22
	lis          r10,?MYPtr1@@3KA
	mr           r11,r11
	stw          r11,?MYPtr1@@3KA(r10)
; Line 25
	lis          r11,?InfHealth@@3_NA
	lbz          r11,?InfHealth@@3_NA(r11)
	cmpwi        cr6,r11,1
	bne          cr6,$LN1@AlienRChec
; Line 27
	lis          r11,?MYPtr1@@3KA
	lwz          r11,?MYPtr1@@3KA(r11)
	li           r10,1500		; 5DCh
	stw          r10,304h(r11)
$LN1@AlienRChec:
; Line 30
	bl           ?Loadregs@@YAXXZ
; Line 36
	extsw        r8,r10
; Line 37
	extsw        r7,r9
; Line 38
	std          r8,60h(r1)
; Line 40
	mtlr         r18
; Line 41
	lis          r18,-32065		; 82BFh
; Line 42
	ori          r18,r18,18264		; 4758h
; Line 43
	mtctr        r18
; Line 44
	bctr
; End code for function: ?AlienRCheckHealth@@YAXXZ
?AlienRCheckHealth@@YAXXZ ENDP
							; AlienRCheckHealth
PUBLIC	?AlienRSetHooks@@YAXXZ				; AlienRSetHooks
;	COMDAT .pdata
.pdata	SEGMENT
$T76691	DD	?AlienRSetHooks@@YAXXZ
	DD	040001003H
; Function compile flags: /Ogsu

	.code

?AlienRSetHooks@@YAXXZ PROC NEAR				; AlienRSetHooks, COMDAT

; Begin code for function: ?AlienRSetHooks@@YAXXZ
; Line 54
	mflr         r12
	stw          r12,-8(r1)
	stwu         r1,-60h(r1)
.endprolog
$M76689:
; Line 55
	lis          r11,addr
	lis          r10,?AlienRCheckHealth@@YAXXZ
	li           r5,18		; 12h
	addi         r4,r10,?AlienRCheckHealth@@YAXXZ
	lwz          r3,addr(r11)
	bl           ?Caveme@@YAXKPAXE@Z
; Line 56
	lis          r10,?HooksSet@@3_NA
	li           r11,1
	stb          r11,?HooksSet@@3_NA(r10)
; Line 57
	addi         r1,r1,96		; 60h
	lwz          r12,-8(r1)
	mtlr         r12
	blr
$M76690:
; End code for function: ?AlienRSetHooks@@YAXXZ
?AlienRSetHooks@@YAXXZ ENDP
							; AlienRSetHooks
PUBLIC	??_C@_1OE@BJMMPPDJ@A?$AAl?$AAi?$AAe?$AAn?$AA?5?$AAR?$AAa?$AAg?$AAe?$AA?5?$AA?$CL?$AA?5?$AA2?$AA?$AN?$AA?6?$AA?$HO?$AA?$HO?$AA?$HO?$AA?$HO?$AA?$HO?$AA?$HO?$AA?$HO?$AA?$HO?$AA?$HO?$AA?$HO?$AA?$HO?$AA?$HO?$AA?$HO?$AA?$HO?$AA?$HO?$AA?$HO?$AA@ ; `string'
PUBLIC	?Trainer58410B22@@YAXXZ				; Trainer58410B22
;	COMDAT .pdata
.pdata	SEGMENT
$T76697	DD	?Trainer58410B22@@YAXXZ
	DD	040001e03H
;	COMDAT ??_C@_1OE@BJMMPPDJ@A?$AAl?$AAi?$AAe?$AAn?$AA?5?$AAR?$AAa?$AAg?$AAe?$AA?5?$AA?$CL?$AA?5?$AA2?$AA?$AN?$AA?6?$AA?$HO?$AA?$HO?$AA?$HO?$AA?$HO?$AA?$HO?$AA?$HO?$AA?$HO?$AA?$HO?$AA?$HO?$AA?$HO?$AA?$HO?$AA?$HO?$AA?$HO?$AA?$HO?$AA?$HO?$AA?$HO?$AA@
.rdata	SEGMENT
??_C@_1OE@BJMMPPDJ@A?$AAl?$AAi?$AAe?$AAn?$AA?5?$AAR?$AAa?$AAg?$AAe?$AA?5?$AA?$CL?$AA?5?$AA2?$AA?$AN?$AA?6?$AA?$HO?$AA?$HO?$AA?$HO?$AA?$HO?$AA?$HO?$AA?$HO?$AA?$HO?$AA?$HO?$AA?$HO?$AA?$HO?$AA?$HO?$AA?$HO?$AA?$HO?$AA?$HO?$AA?$HO?$AA?$HO?$AA@ DB 00H
	DB	'A', 00H, 'l', 00H, 'i', 00H, 'e', 00H, 'n', 00H, ' ', 00H, 'R'
	DB	00H, 'a', 00H, 'g', 00H, 'e', 00H, ' ', 00H, '+', 00H, ' ', 00H
	DB	'2', 00H, 0dH, 00H, 0aH, 00H, '~', 00H, '~', 00H, '~', 00H, '~'
	DB	00H, '~', 00H, '~', 00H, '~', 00H, '~', 00H, '~', 00H, '~', 00H
	DB	'~', 00H, '~', 00H, '~', 00H, '~', 00H, '~', 00H, '~', 00H, '~'
	DB	00H, '~', 00H, '~', 00H, '~', 00H, '~', 00H, '~', 00H, '~', 00H
	DB	'~', 00H, '~', 00H, 0dH, 00H, 0aH, 00H, 'V', 00H, 'i', 00H, 'e'
	DB	00H, 'w', 00H, ' ', 00H, 'A', 00H, 'v', 00H, 'a', 00H, 'i', 00H
	DB	'l', 00H, 'a', 00H, 'b', 00H, 'l', 00H, 'e', 00H, ' ', 00H, 'C'
	DB	00H, 'o', 00H, 'd', 00H, 'e', 00H, 's', 00H, ':', 00H, ' ', 00H
	DB	'D', 00H, 'P', 00H, 'A', 00H, 'D', 00H, '-', 00H, 'D', 00H, 'O'
	DB	00H, 'W', 00H, 'N', 00H, '(', 00H, 'x', 00H, '4', 00H, ')', 00H
	DB	0dH, 00H, 0aH, 00H, 'A', 00H, 'c', 00H, 't', 00H, 'i', 00H, 'v'
	DB	00H, 'a', 00H, 't', 00H, 'e', 00H, ' ', 00H, 'A', 00H, 'l', 00H
	DB	'l', 00H, ' ', 00H, 'C', 00H, 'o', 00H, 'd', 00H, 'e', 00H, 's'
	DB	00H, ':', 00H, ' ', 00H, 'D', 00H, 'P', 00H, 'A', 00H, 'D', 00H
	DB	'-', 00H, 'U', 00H, 'P', 00H, '(', 00H, 'x', 00H, '4', 00H, ')'
	DB	00H, 0dH, 00H, 0aH, 00H, 00H			; `string'
; Function compile flags: /Ogsu

	.code

?Trainer58410B22@@YAXXZ	PROC NEAR			; Trainer58410B22, COMDAT

; Begin code for function: ?Trainer58410B22@@YAXXZ
; Line 60
	mflr         r12
	stw          r12,-8(r1)
	stwu         r1,-60h(r1)
.endprolog
$M76695:
; Line 61
	lis          r9,?g_strButtons@@3PAPB_WA
	lis          r8,??_C@_1OE@BJMMPPDJ@A?$AAl?$AAi?$AAe?$AAn?$AA?5?$AAR?$AAa?$AAg?$AAe?$AA?5?$AA?$CL?$AA?5?$AA2?$AA?$AN?$AA?6?$AA?$HO?$AA?$HO?$AA?$HO?$AA?$HO?$AA?$HO?$AA?$HO?$AA?$HO?$AA?$HO?$AA?$HO?$AA?$HO?$AA?$HO?$AA?$HO?$AA?$HO?$AA?$HO?$AA?$HO?$AA?$HO?$AA@
	lis          r6,??_C@_1CK@NNKGKBGB@M?$AAo?$AAr?$AAe?$AA?5?$AAa?$AAt?$AA?5?$AAT?$AA3?$AAf?$AAu?$AAr?$AAy?$AA?4?$AAc?$AAo?$AA?4?$AAu?$AAk?$AA?$AA?$AA@
	lis          r11,?g_xol@@3U_XOVERLAPPED@@A
	lis          r10,?g_mb_result@@3U_MESSAGEBOX_RESULT@@A
	addi         r11,r11,?g_xol@@3U_XOVERLAPPED@@A
	addi         r7,r9,?g_strButtons@@3PAPB_WA
	addi         r5,r8,??_C@_1OE@BJMMPPDJ@A?$AAl?$AAi?$AAe?$AAn?$AA?5?$AAR?$AAa?$AAg?$AAe?$AA?5?$AA?$CL?$AA?5?$AA2?$AA?$AN?$AA?6?$AA?$HO?$AA?$HO?$AA?$HO?$AA?$HO?$AA?$HO?$AA?$HO?$AA?$HO?$AA?$HO?$AA?$HO?$AA?$HO?$AA?$HO?$AA?$HO?$AA?$HO?$AA?$HO?$AA?$HO?$AA?$HO?$AA@
	stw          r11,54h(r1)
	addi         r4,r6,??_C@_1CK@NNKGKBGB@M?$AAo?$AAr?$AAe?$AA?5?$AAa?$AAt?$AA?5?$AAT?$AA3?$AAf?$AAu?$AAr?$AAy?$AA?4?$AAc?$AAo?$AA?4?$AAu?$AAk?$AA?$AA?$AA@
	addi         r10,r10,?g_mb_result@@3U_MESSAGEBOX_RESULT@@A
	lis          r9,1
	li           r8,0
	li           r6,1
	li           r3,0
	bl           XShowMessageBoxUI
; Line 62
	lis          r11,?HooksSet@@3_NA
	lis          r10,?Prompt@@3KA
	lbz          r11,?HooksSet@@3_NA(r11)
	stw          r3,?Prompt@@3KA(r10)
	cmplwi       r11,0
	bne          $LN1@Trainer584@5
; Line 64
	bl           ?AlienRSetHooks@@YAXXZ
$LN1@Trainer584@5:
; Line 66
	addi         r1,r1,96		; 60h
	lwz          r12,-8(r1)
	mtlr         r12
	blr
$M76696:
; End code for function: ?Trainer58410B22@@YAXXZ
?Trainer58410B22@@YAXXZ ENDP
							; Trainer58410B22
PUBLIC	??_C@_1BAG@HODLNMJJ@A?$AAl?$AAl?$AA?5?$AAZ?$AAo?$AAm?$AAb?$AAi?$AAe?$AAs?$AA?5?$AAM?$AAu?$AAs?$AAt?$AA?5?$AAD?$AAi?$AAe?$AA?5?$AA?$CL?$AA6?$AA?5?$AAT?$AAr?$AAa?$AAi?$AAn?$AAe?$AAr?$AA?$AN?$AA@ ; `string'
PUBLIC	?Trainer58411204@@YAXXZ				; Trainer58411204
;	COMDAT .pdata
; File c:\users\t3fur\desktop\viper engine 1.4\trainer\all zombies must die.h
.pdata	SEGMENT
$T76703	DD	?Trainer58411204@@YAXXZ
	DD	040001903H
;	COMDAT ??_C@_1BAG@HODLNMJJ@A?$AAl?$AAl?$AA?5?$AAZ?$AAo?$AAm?$AAb?$AAi?$AAe?$AAs?$AA?5?$AAM?$AAu?$AAs?$AAt?$AA?5?$AAD?$AAi?$AAe?$AA?5?$AA?$CL?$AA6?$AA?5?$AAT?$AAr?$AAa?$AAi?$AAn?$AAe?$AAr?$AA?$AN?$AA@
.rdata	SEGMENT
??_C@_1BAG@HODLNMJJ@A?$AAl?$AAl?$AA?5?$AAZ?$AAo?$AAm?$AAb?$AAi?$AAe?$AAs?$AA?5?$AAM?$AAu?$AAs?$AAt?$AA?5?$AAD?$AAi?$AAe?$AA?5?$AA?$CL?$AA6?$AA?5?$AAT?$AAr?$AAa?$AAi?$AAn?$AAe?$AAr?$AA?$AN?$AA@ DB 00H
	DB	'A', 00H, 'l', 00H, 'l', 00H, ' ', 00H, 'Z', 00H, 'o', 00H, 'm'
	DB	00H, 'b', 00H, 'i', 00H, 'e', 00H, 's', 00H, ' ', 00H, 'M', 00H
	DB	'u', 00H, 's', 00H, 't', 00H, ' ', 00H, 'D', 00H, 'i', 00H, 'e'
	DB	00H, ' ', 00H, '+', 00H, '6', 00H, ' ', 00H, 'T', 00H, 'r', 00H
	DB	'a', 00H, 'i', 00H, 'n', 00H, 'e', 00H, 'r', 00H, 0dH, 00H, 0aH
	DB	00H, '~', 00H, '~', 00H, '~', 00H, '~', 00H, '~', 00H, '~', 00H
	DB	'~', 00H, '~', 00H, '~', 00H, '~', 00H, '~', 00H, '~', 00H, '~'
	DB	00H, '~', 00H, '~', 00H, '~', 00H, '~', 00H, '~', 00H, '~', 00H
	DB	'~', 00H, '~', 00H, '~', 00H, '~', 00H, '~', 00H, '~', 00H, 0dH
	DB	00H, 0aH, 00H, 'V', 00H, 'i', 00H, 'e', 00H, 'w', 00H, ' ', 00H
	DB	'A', 00H, 'v', 00H, 'a', 00H, 'i', 00H, 'l', 00H, 'a', 00H, 'b'
	DB	00H, 'l', 00H, 'e', 00H, ' ', 00H, 'C', 00H, 'o', 00H, 'd', 00H
	DB	'e', 00H, 's', 00H, ':', 00H, ' ', 00H, 'D', 00H, 'P', 00H, 'A'
	DB	00H, 'D', 00H, '-', 00H, 'D', 00H, 'O', 00H, 'W', 00H, 'N', 00H
	DB	'(', 00H, 'x', 00H, '4', 00H, ')', 00H, 0dH, 00H, 0aH, 00H, 'A'
	DB	00H, 'c', 00H, 't', 00H, 'i', 00H, 'v', 00H, 'a', 00H, 't', 00H
	DB	'e', 00H, ' ', 00H, 'A', 00H, 'l', 00H, 'l', 00H, ' ', 00H, 'C'
	DB	00H, 'o', 00H, 'd', 00H, 'e', 00H, 's', 00H, ':', 00H, ' ', 00H
	DB	'D', 00H, 'P', 00H, 'A', 00H, 'D', 00H, '-', 00H, 'U', 00H, 'P'
	DB	00H, '(', 00H, 'x', 00H, '4', 00H, ')', 00H, 0dH, 00H, 0aH, 00H
	DB	00H						; `string'
; Function compile flags: /Ogsu

	.code

?Trainer58411204@@YAXXZ	PROC NEAR			; Trainer58411204, COMDAT

; Begin code for function: ?Trainer58411204@@YAXXZ
; Line 6
	mflr         r12
	stw          r12,-8(r1)
	stwu         r1,-60h(r1)
.endprolog
$M76701:
; Line 7
	lis          r9,?g_strButtons@@3PAPB_WA
	lis          r8,??_C@_1BAG@HODLNMJJ@A?$AAl?$AAl?$AA?5?$AAZ?$AAo?$AAm?$AAb?$AAi?$AAe?$AAs?$AA?5?$AAM?$AAu?$AAs?$AAt?$AA?5?$AAD?$AAi?$AAe?$AA?5?$AA?$CL?$AA6?$AA?5?$AAT?$AAr?$AAa?$AAi?$AAn?$AAe?$AAr?$AA?$AN?$AA@
	lis          r6,??_C@_1CK@NKCKLNAA@M?$AAo?$AAr?$AAe?$AA?5?$AAA?$AAt?$AA?5?$AAT?$AA3?$AAf?$AAu?$AAr?$AAy?$AA?4?$AAc?$AAo?$AA?4?$AAu?$AAk?$AA?$AA?$AA@
	lis          r11,?g_xol@@3U_XOVERLAPPED@@A
	lis          r10,?g_mb_result@@3U_MESSAGEBOX_RESULT@@A
	addi         r11,r11,?g_xol@@3U_XOVERLAPPED@@A
	addi         r7,r9,?g_strButtons@@3PAPB_WA
	addi         r5,r8,??_C@_1BAG@HODLNMJJ@A?$AAl?$AAl?$AA?5?$AAZ?$AAo?$AAm?$AAb?$AAi?$AAe?$AAs?$AA?5?$AAM?$AAu?$AAs?$AAt?$AA?5?$AAD?$AAi?$AAe?$AA?5?$AA?$CL?$AA6?$AA?5?$AAT?$AAr?$AAa?$AAi?$AAn?$AAe?$AAr?$AA?$AN?$AA@
	stw          r11,54h(r1)
	addi         r4,r6,??_C@_1CK@NKCKLNAA@M?$AAo?$AAr?$AAe?$AA?5?$AAA?$AAt?$AA?5?$AAT?$AA3?$AAf?$AAu?$AAr?$AAy?$AA?4?$AAc?$AAo?$AA?4?$AAu?$AAk?$AA?$AA?$AA@
	addi         r10,r10,?g_mb_result@@3U_MESSAGEBOX_RESULT@@A
	lis          r9,1
	li           r8,0
	li           r6,1
	li           r3,0
	bl           XShowMessageBoxUI
	lis          r11,?Prompt@@3KA
	stw          r3,?Prompt@@3KA(r11)
; Line 8
	addi         r1,r1,96		; 60h
	lwz          r12,-8(r1)
	mtlr         r12
	blr
$M76702:
; End code for function: ?Trainer58411204@@YAXXZ
?Trainer58411204@@YAXXZ ENDP
							; Trainer58411204
PUBLIC	??_C@_1PC@OEBBOFAD@A?$AAl?$AAo?$AAn?$AAe?$AA?5?$AAi?$AAn?$AA?5?$AAt?$AAh?$AAe?$AA?5?$AAD?$AAa?$AAr?$AAk?$AA?5?$AA?$CL?$AA?5?$AA4?$AA?$AN?$AA?6?$AA?$HO?$AA?$HO?$AA?$HO?$AA?$HO?$AA?$HO?$AA?$HO?$AA?$HO?$AA?$HO?$AA?$HO?$AA@ ; `string'
PUBLIC	?Trainer494707D1@@YAXXZ				; Trainer494707D1
;	COMDAT .pdata
; File c:\users\t3fur\desktop\viper engine 1.4\trainer\alone in the dark.h
.pdata	SEGMENT
$T76709	DD	?Trainer494707D1@@YAXXZ
	DD	040001e03H
;	COMDAT ??_C@_1PC@OEBBOFAD@A?$AAl?$AAo?$AAn?$AAe?$AA?5?$AAi?$AAn?$AA?5?$AAt?$AAh?$AAe?$AA?5?$AAD?$AAa?$AAr?$AAk?$AA?5?$AA?$CL?$AA?5?$AA4?$AA?$AN?$AA?6?$AA?$HO?$AA?$HO?$AA?$HO?$AA?$HO?$AA?$HO?$AA?$HO?$AA?$HO?$AA?$HO?$AA?$HO?$AA@
.rdata	SEGMENT
??_C@_1PC@OEBBOFAD@A?$AAl?$AAo?$AAn?$AAe?$AA?5?$AAi?$AAn?$AA?5?$AAt?$AAh?$AAe?$AA?5?$AAD?$AAa?$AAr?$AAk?$AA?5?$AA?$CL?$AA?5?$AA4?$AA?$AN?$AA?6?$AA?$HO?$AA?$HO?$AA?$HO?$AA?$HO?$AA?$HO?$AA?$HO?$AA?$HO?$AA?$HO?$AA?$HO?$AA@ DB 00H
	DB	'A', 00H, 'l', 00H, 'o', 00H, 'n', 00H, 'e', 00H, ' ', 00H, 'i'
	DB	00H, 'n', 00H, ' ', 00H, 't', 00H, 'h', 00H, 'e', 00H, ' ', 00H
	DB	'D', 00H, 'a', 00H, 'r', 00H, 'k', 00H, ' ', 00H, '+', 00H, ' '
	DB	00H, '4', 00H, 0dH, 00H, 0aH, 00H, '~', 00H, '~', 00H, '~', 00H
	DB	'~', 00H, '~', 00H, '~', 00H, '~', 00H, '~', 00H, '~', 00H, '~'
	DB	00H, '~', 00H, '~', 00H, '~', 00H, '~', 00H, '~', 00H, '~', 00H
	DB	'~', 00H, '~', 00H, '~', 00H, '~', 00H, '~', 00H, '~', 00H, '~'
	DB	00H, '~', 00H, '~', 00H, 0dH, 00H, 0aH, 00H, 'V', 00H, 'i', 00H
	DB	'e', 00H, 'w', 00H, ' ', 00H, 'A', 00H, 'v', 00H, 'a', 00H, 'i'
	DB	00H, 'l', 00H, 'a', 00H, 'b', 00H, 'l', 00H, 'e', 00H, ' ', 00H
	DB	'C', 00H, 'o', 00H, 'd', 00H, 'e', 00H, 's', 00H, ':', 00H, ' '
	DB	00H, 'D', 00H, 'P', 00H, 'A', 00H, 'D', 00H, '-', 00H, 'D', 00H
	DB	'O', 00H, 'W', 00H, 'N', 00H, '(', 00H, 'x', 00H, '4', 00H, ')'
	DB	00H, 0dH, 00H, 0aH, 00H, 'A', 00H, 'c', 00H, 't', 00H, 'i', 00H
	DB	'v', 00H, 'a', 00H, 't', 00H, 'e', 00H, ' ', 00H, 'A', 00H, 'l'
	DB	00H, 'l', 00H, ' ', 00H, 'C', 00H, 'o', 00H, 'd', 00H, 'e', 00H
	DB	's', 00H, ':', 00H, ' ', 00H, 'D', 00H, 'P', 00H, 'A', 00H, 'D'
	DB	00H, '-', 00H, 'U', 00H, 'P', 00H, '(', 00H, 'x', 00H, '4', 00H
	DB	')', 00H, 0dH, 00H, 0aH, 00H, 00H		; `string'
; Function compile flags: /Ogsu

	.code

?Trainer494707D1@@YAXXZ	PROC NEAR			; Trainer494707D1, COMDAT

; Begin code for function: ?Trainer494707D1@@YAXXZ
; Line 8
	mflr         r12
	stw          r12,-8(r1)
	stwu         r1,-60h(r1)
.endprolog
$M76707:
; Line 9
	lis          r9,?g_strButtons@@3PAPB_WA
	lis          r8,??_C@_1PC@OEBBOFAD@A?$AAl?$AAo?$AAn?$AAe?$AA?5?$AAi?$AAn?$AA?5?$AAt?$AAh?$AAe?$AA?5?$AAD?$AAa?$AAr?$AAk?$AA?5?$AA?$CL?$AA?5?$AA4?$AA?$AN?$AA?6?$AA?$HO?$AA?$HO?$AA?$HO?$AA?$HO?$AA?$HO?$AA?$HO?$AA?$HO?$AA?$HO?$AA?$HO?$AA@
	lis          r6,??_C@_1DC@JKLNPENH@h?$AAt?$AAt?$AAp?$AAs?$AA?3?$AA?1?$AA?1?$AAw?$AAw?$AAw?$AA?4?$AAt?$AA3?$AAf?$AAu?$AAr?$AAy?$AA?4?$AAc?$AAo?$AA?4?$AAu?$AAk?$AA?$AA?$AA@
	lis          r11,?g_xol@@3U_XOVERLAPPED@@A
	lis          r10,?g_mb_result@@3U_MESSAGEBOX_RESULT@@A
	addi         r11,r11,?g_xol@@3U_XOVERLAPPED@@A
	addi         r7,r9,?g_strButtons@@3PAPB_WA
	addi         r5,r8,??_C@_1PC@OEBBOFAD@A?$AAl?$AAo?$AAn?$AAe?$AA?5?$AAi?$AAn?$AA?5?$AAt?$AAh?$AAe?$AA?5?$AAD?$AAa?$AAr?$AAk?$AA?5?$AA?$CL?$AA?5?$AA4?$AA?$AN?$AA?6?$AA?$HO?$AA?$HO?$AA?$HO?$AA?$HO?$AA?$HO?$AA?$HO?$AA?$HO?$AA?$HO?$AA?$HO?$AA@
	stw          r11,54h(r1)
	addi         r4,r6,??_C@_1DC@JKLNPENH@h?$AAt?$AAt?$AAp?$AAs?$AA?3?$AA?1?$AA?1?$AAw?$AAw?$AAw?$AA?4?$AAt?$AA3?$AAf?$AAu?$AAr?$AAy?$AA?4?$AAc?$AAo?$AA?4?$AAu?$AAk?$AA?$AA?$AA@
	addi         r10,r10,?g_mb_result@@3U_MESSAGEBOX_RESULT@@A
	lis          r9,1
	li           r8,0
	li           r6,1
	li           r3,0
	bl           XShowMessageBoxUI
; Line 11
	lis          r11,?Prompt@@3KA
	lis          r4,32126		; 7D7Eh
	ori          r4,r4,23060		; 5A14h
	stw          r3,?Prompt@@3KA(r11)
	lis          r3,-32187		; 8245h
	ori          r3,r3,6932		; 1B14h
	bl           SetDWORD
; Line 12
	addi         r1,r1,96		; 60h
	lwz          r12,-8(r1)
	mtlr         r12
	blr
$M76708:
; End code for function: ?Trainer494707D1@@YAXXZ
?Trainer494707D1@@YAXXZ ENDP
							; Trainer494707D1
PUBLIC	??_C@_1PC@CKBBIFLK@A?$AAr?$AAk?$AAa?$AAd?$AAi?$AAa?$AAn?$AA?5?$AAW?$AAa?$AAr?$AAr?$AAi?$AAo?$AAr?$AAs?$AA?5?$AA?$CL?$AA?5?$AA4?$AA?$AN?$AA?6?$AA?$HO?$AA?$HO?$AA?$HO?$AA?$HO?$AA?$HO?$AA?$HO?$AA?$HO?$AA?$HO?$AA?$HO?$AA@ ; `string'
PUBLIC	?Trainer58410807@@YAXXZ				; Trainer58410807
;	COMDAT .pdata
; File c:\users\t3fur\desktop\viper engine 1.4\trainer\arkadian.h
.pdata	SEGMENT
$T76715	DD	?Trainer58410807@@YAXXZ
	DD	040001903H
;	COMDAT ??_C@_1PC@CKBBIFLK@A?$AAr?$AAk?$AAa?$AAd?$AAi?$AAa?$AAn?$AA?5?$AAW?$AAa?$AAr?$AAr?$AAi?$AAo?$AAr?$AAs?$AA?5?$AA?$CL?$AA?5?$AA4?$AA?$AN?$AA?6?$AA?$HO?$AA?$HO?$AA?$HO?$AA?$HO?$AA?$HO?$AA?$HO?$AA?$HO?$AA?$HO?$AA?$HO?$AA@
.rdata	SEGMENT
??_C@_1PC@CKBBIFLK@A?$AAr?$AAk?$AAa?$AAd?$AAi?$AAa?$AAn?$AA?5?$AAW?$AAa?$AAr?$AAr?$AAi?$AAo?$AAr?$AAs?$AA?5?$AA?$CL?$AA?5?$AA4?$AA?$AN?$AA?6?$AA?$HO?$AA?$HO?$AA?$HO?$AA?$HO?$AA?$HO?$AA?$HO?$AA?$HO?$AA?$HO?$AA?$HO?$AA@ DB 00H
	DB	'A', 00H, 'r', 00H, 'k', 00H, 'a', 00H, 'd', 00H, 'i', 00H, 'a'
	DB	00H, 'n', 00H, ' ', 00H, 'W', 00H, 'a', 00H, 'r', 00H, 'r', 00H
	DB	'i', 00H, 'o', 00H, 'r', 00H, 's', 00H, ' ', 00H, '+', 00H, ' '
	DB	00H, '4', 00H, 0dH, 00H, 0aH, 00H, '~', 00H, '~', 00H, '~', 00H
	DB	'~', 00H, '~', 00H, '~', 00H, '~', 00H, '~', 00H, '~', 00H, '~'
	DB	00H, '~', 00H, '~', 00H, '~', 00H, '~', 00H, '~', 00H, '~', 00H
	DB	'~', 00H, '~', 00H, '~', 00H, '~', 00H, '~', 00H, '~', 00H, '~'
	DB	00H, '~', 00H, '~', 00H, 0dH, 00H, 0aH, 00H, 'V', 00H, 'i', 00H
	DB	'e', 00H, 'w', 00H, ' ', 00H, 'A', 00H, 'v', 00H, 'a', 00H, 'i'
	DB	00H, 'l', 00H, 'a', 00H, 'b', 00H, 'l', 00H, 'e', 00H, ' ', 00H
	DB	'C', 00H, 'o', 00H, 'd', 00H, 'e', 00H, 's', 00H, ':', 00H, ' '
	DB	00H, 'D', 00H, 'P', 00H, 'A', 00H, 'D', 00H, '-', 00H, 'D', 00H
	DB	'O', 00H, 'W', 00H, 'N', 00H, '(', 00H, 'x', 00H, '4', 00H, ')'
	DB	00H, 0dH, 00H, 0aH, 00H, 'A', 00H, 'c', 00H, 't', 00H, 'i', 00H
	DB	'v', 00H, 'a', 00H, 't', 00H, 'e', 00H, ' ', 00H, 'A', 00H, 'l'
	DB	00H, 'l', 00H, ' ', 00H, 'C', 00H, 'o', 00H, 'd', 00H, 'e', 00H
	DB	's', 00H, ':', 00H, ' ', 00H, 'D', 00H, 'P', 00H, 'A', 00H, 'D'
	DB	00H, '-', 00H, 'U', 00H, 'P', 00H, '(', 00H, 'x', 00H, '4', 00H
	DB	')', 00H, 0dH, 00H, 0aH, 00H, 00H		; `string'
; Function compile flags: /Ogsu

	.code

?Trainer58410807@@YAXXZ	PROC NEAR			; Trainer58410807, COMDAT

; Begin code for function: ?Trainer58410807@@YAXXZ
; Line 14
	mflr         r12
	stw          r12,-8(r1)
	stwu         r1,-60h(r1)
.endprolog
$M76713:
; Line 15
	lis          r9,?g_strButtons@@3PAPB_WA
	lis          r8,??_C@_1PC@CKBBIFLK@A?$AAr?$AAk?$AAa?$AAd?$AAi?$AAa?$AAn?$AA?5?$AAW?$AAa?$AAr?$AAr?$AAi?$AAo?$AAr?$AAs?$AA?5?$AA?$CL?$AA?5?$AA4?$AA?$AN?$AA?6?$AA?$HO?$AA?$HO?$AA?$HO?$AA?$HO?$AA?$HO?$AA?$HO?$AA?$HO?$AA?$HO?$AA?$HO?$AA@
	lis          r6,??_C@_1CK@NNKGKBGB@M?$AAo?$AAr?$AAe?$AA?5?$AAa?$AAt?$AA?5?$AAT?$AA3?$AAf?$AAu?$AAr?$AAy?$AA?4?$AAc?$AAo?$AA?4?$AAu?$AAk?$AA?$AA?$AA@
	lis          r11,?g_xol@@3U_XOVERLAPPED@@A
	lis          r10,?g_mb_result@@3U_MESSAGEBOX_RESULT@@A
	addi         r11,r11,?g_xol@@3U_XOVERLAPPED@@A
	addi         r7,r9,?g_strButtons@@3PAPB_WA
	addi         r5,r8,??_C@_1PC@CKBBIFLK@A?$AAr?$AAk?$AAa?$AAd?$AAi?$AAa?$AAn?$AA?5?$AAW?$AAa?$AAr?$AAr?$AAi?$AAo?$AAr?$AAs?$AA?5?$AA?$CL?$AA?5?$AA4?$AA?$AN?$AA?6?$AA?$HO?$AA?$HO?$AA?$HO?$AA?$HO?$AA?$HO?$AA?$HO?$AA?$HO?$AA?$HO?$AA?$HO?$AA@
	stw          r11,54h(r1)
	addi         r4,r6,??_C@_1CK@NNKGKBGB@M?$AAo?$AAr?$AAe?$AA?5?$AAa?$AAt?$AA?5?$AAT?$AA3?$AAf?$AAu?$AAr?$AAy?$AA?4?$AAc?$AAo?$AA?4?$AAu?$AAk?$AA?$AA?$AA@
	addi         r10,r10,?g_mb_result@@3U_MESSAGEBOX_RESULT@@A
	lis          r9,1
	li           r8,0
	li           r6,1
	li           r3,0
	bl           XShowMessageBoxUI
	lis          r11,?Prompt@@3KA
	stw          r3,?Prompt@@3KA(r11)
; Line 16
	addi         r1,r1,96		; 60h
	lwz          r12,-8(r1)
	mtlr         r12
	blr
$M76714:
; End code for function: ?Trainer58410807@@YAXXZ
?Trainer58410807@@YAXXZ ENDP
							; Trainer58410807
PUBLIC	??_C@_1OM@CNKJOKPH@A?$AAs?$AAs?$AAa?$AAu?$AAl?$AAt?$AA?5?$AAH?$AAe?$AAr?$AAo?$AAe?$AAs?$AA?5?$AA?$CL?$AA?5?$AA4?$AA?$AN?$AA?6?$AA?$HO?$AA?$HO?$AA?$HO?$AA?$HO?$AA?$HO?$AA?$HO?$AA?$HO?$AA?$HO?$AA?$HO?$AA?$HO?$AA?$HO?$AA?$HO?$AA@ ; `string'
PUBLIC	?Trainer584107FE@@YAXXZ				; Trainer584107FE
;	COMDAT .pdata
; File c:\users\t3fur\desktop\viper engine 1.4\trainer\assault heroes.h
.pdata	SEGMENT
$T76721	DD	?Trainer584107FE@@YAXXZ
	DD	040001903H
;	COMDAT ??_C@_1OM@CNKJOKPH@A?$AAs?$AAs?$AAa?$AAu?$AAl?$AAt?$AA?5?$AAH?$AAe?$AAr?$AAo?$AAe?$AAs?$AA?5?$AA?$CL?$AA?5?$AA4?$AA?$AN?$AA?6?$AA?$HO?$AA?$HO?$AA?$HO?$AA?$HO?$AA?$HO?$AA?$HO?$AA?$HO?$AA?$HO?$AA?$HO?$AA?$HO?$AA?$HO?$AA?$HO?$AA@
.rdata	SEGMENT
??_C@_1OM@CNKJOKPH@A?$AAs?$AAs?$AAa?$AAu?$AAl?$AAt?$AA?5?$AAH?$AAe?$AAr?$AAo?$AAe?$AAs?$AA?5?$AA?$CL?$AA?5?$AA4?$AA?$AN?$AA?6?$AA?$HO?$AA?$HO?$AA?$HO?$AA?$HO?$AA?$HO?$AA?$HO?$AA?$HO?$AA?$HO?$AA?$HO?$AA?$HO?$AA?$HO?$AA?$HO?$AA@ DB 00H
	DB	'A', 00H, 's', 00H, 's', 00H, 'a', 00H, 'u', 00H, 'l', 00H, 't'
	DB	00H, ' ', 00H, 'H', 00H, 'e', 00H, 'r', 00H, 'o', 00H, 'e', 00H
	DB	's', 00H, ' ', 00H, '+', 00H, ' ', 00H, '4', 00H, 0dH, 00H, 0aH
	DB	00H, '~', 00H, '~', 00H, '~', 00H, '~', 00H, '~', 00H, '~', 00H
	DB	'~', 00H, '~', 00H, '~', 00H, '~', 00H, '~', 00H, '~', 00H, '~'
	DB	00H, '~', 00H, '~', 00H, '~', 00H, '~', 00H, '~', 00H, '~', 00H
	DB	'~', 00H, '~', 00H, '~', 00H, '~', 00H, '~', 00H, '~', 00H, 0dH
	DB	00H, 0aH, 00H, 'V', 00H, 'i', 00H, 'e', 00H, 'w', 00H, ' ', 00H
	DB	'A', 00H, 'v', 00H, 'a', 00H, 'i', 00H, 'l', 00H, 'a', 00H, 'b'
	DB	00H, 'l', 00H, 'e', 00H, ' ', 00H, 'C', 00H, 'o', 00H, 'd', 00H
	DB	'e', 00H, 's', 00H, ':', 00H, ' ', 00H, 'D', 00H, 'P', 00H, 'A'
	DB	00H, 'D', 00H, '-', 00H, 'D', 00H, 'O', 00H, 'W', 00H, 'N', 00H
	DB	'(', 00H, 'x', 00H, '4', 00H, ')', 00H, 0dH, 00H, 0aH, 00H, 'A'
	DB	00H, 'c', 00H, 't', 00H, 'i', 00H, 'v', 00H, 'a', 00H, 't', 00H
	DB	'e', 00H, ' ', 00H, 'A', 00H, 'l', 00H, 'l', 00H, ' ', 00H, 'C'
	DB	00H, 'o', 00H, 'd', 00H, 'e', 00H, 's', 00H, ':', 00H, ' ', 00H
	DB	'D', 00H, 'P', 00H, 'A', 00H, 'D', 00H, '-', 00H, 'U', 00H, 'P'
	DB	00H, '(', 00H, 'x', 00H, '4', 00H, ')', 00H, 0dH, 00H, 0aH, 00H
	DB	00H						; `string'
; Function compile flags: /Ogsu

	.code

?Trainer584107FE@@YAXXZ	PROC NEAR			; Trainer584107FE, COMDAT

; Begin code for function: ?Trainer584107FE@@YAXXZ
; Line 12
	mflr         r12
	stw          r12,-8(r1)
	stwu         r1,-60h(r1)
.endprolog
$M76719:
; Line 13
	lis          r9,?g_strButtons@@3PAPB_WA
	lis          r8,??_C@_1OM@CNKJOKPH@A?$AAs?$AAs?$AAa?$AAu?$AAl?$AAt?$AA?5?$AAH?$AAe?$AAr?$AAo?$AAe?$AAs?$AA?5?$AA?$CL?$AA?5?$AA4?$AA?$AN?$AA?6?$AA?$HO?$AA?$HO?$AA?$HO?$AA?$HO?$AA?$HO?$AA?$HO?$AA?$HO?$AA?$HO?$AA?$HO?$AA?$HO?$AA?$HO?$AA?$HO?$AA@
	lis          r6,??_C@_1CK@NNKGKBGB@M?$AAo?$AAr?$AAe?$AA?5?$AAa?$AAt?$AA?5?$AAT?$AA3?$AAf?$AAu?$AAr?$AAy?$AA?4?$AAc?$AAo?$AA?4?$AAu?$AAk?$AA?$AA?$AA@
	lis          r11,?g_xol@@3U_XOVERLAPPED@@A
	lis          r10,?g_mb_result@@3U_MESSAGEBOX_RESULT@@A
	addi         r11,r11,?g_xol@@3U_XOVERLAPPED@@A
	addi         r7,r9,?g_strButtons@@3PAPB_WA
	addi         r5,r8,??_C@_1OM@CNKJOKPH@A?$AAs?$AAs?$AAa?$AAu?$AAl?$AAt?$AA?5?$AAH?$AAe?$AAr?$AAo?$AAe?$AAs?$AA?5?$AA?$CL?$AA?5?$AA4?$AA?$AN?$AA?6?$AA?$HO?$AA?$HO?$AA?$HO?$AA?$HO?$AA?$HO?$AA?$HO?$AA?$HO?$AA?$HO?$AA?$HO?$AA?$HO?$AA?$HO?$AA?$HO?$AA@
	stw          r11,54h(r1)
	addi         r4,r6,??_C@_1CK@NNKGKBGB@M?$AAo?$AAr?$AAe?$AA?5?$AAa?$AAt?$AA?5?$AAT?$AA3?$AAf?$AAu?$AAr?$AAy?$AA?4?$AAc?$AAo?$AA?4?$AAu?$AAk?$AA?$AA?$AA@
	addi         r10,r10,?g_mb_result@@3U_MESSAGEBOX_RESULT@@A
	lis          r9,1
	li           r8,0
	li           r6,1
	li           r3,0
	bl           XShowMessageBoxUI
	lis          r11,?Prompt@@3KA
	stw          r3,?Prompt@@3KA(r11)
; Line 15
	addi         r1,r1,96		; 60h
	lwz          r12,-8(r1)
	mtlr         r12
	blr
$M76720:
; End code for function: ?Trainer584107FE@@YAXXZ
?Trainer584107FE@@YAXXZ ENDP
							; Trainer584107FE
PUBLIC	??_C@_1PA@DDGCMKHB@A?$AAs?$AAs?$AAa?$AAu?$AAl?$AAt?$AA?5?$AAH?$AAe?$AAr?$AAo?$AAe?$AAs?$AA?5?$AA2?$AA?5?$AA?$CL?$AA?5?$AA4?$AA?$AN?$AA?6?$AA?$HO?$AA?$HO?$AA?$HO?$AA?$HO?$AA?$HO?$AA?$HO?$AA?$HO?$AA?$HO?$AA?$HO?$AA?$HO?$AA@ ; `string'
PUBLIC	?Trainer584108C3@@YAXXZ				; Trainer584108C3
;	COMDAT .pdata
; File c:\users\t3fur\desktop\viper engine 1.4\trainer\assault heroes 2.h
.pdata	SEGMENT
$T76727	DD	?Trainer584108C3@@YAXXZ
	DD	040001903H
;	COMDAT ??_C@_1PA@DDGCMKHB@A?$AAs?$AAs?$AAa?$AAu?$AAl?$AAt?$AA?5?$AAH?$AAe?$AAr?$AAo?$AAe?$AAs?$AA?5?$AA2?$AA?5?$AA?$CL?$AA?5?$AA4?$AA?$AN?$AA?6?$AA?$HO?$AA?$HO?$AA?$HO?$AA?$HO?$AA?$HO?$AA?$HO?$AA?$HO?$AA?$HO?$AA?$HO?$AA?$HO?$AA@
.rdata	SEGMENT
??_C@_1PA@DDGCMKHB@A?$AAs?$AAs?$AAa?$AAu?$AAl?$AAt?$AA?5?$AAH?$AAe?$AAr?$AAo?$AAe?$AAs?$AA?5?$AA2?$AA?5?$AA?$CL?$AA?5?$AA4?$AA?$AN?$AA?6?$AA?$HO?$AA?$HO?$AA?$HO?$AA?$HO?$AA?$HO?$AA?$HO?$AA?$HO?$AA?$HO?$AA?$HO?$AA?$HO?$AA@ DB 00H
	DB	'A', 00H, 's', 00H, 's', 00H, 'a', 00H, 'u', 00H, 'l', 00H, 't'
	DB	00H, ' ', 00H, 'H', 00H, 'e', 00H, 'r', 00H, 'o', 00H, 'e', 00H
	DB	's', 00H, ' ', 00H, '2', 00H, ' ', 00H, '+', 00H, ' ', 00H, '4'
	DB	00H, 0dH, 00H, 0aH, 00H, '~', 00H, '~', 00H, '~', 00H, '~', 00H
	DB	'~', 00H, '~', 00H, '~', 00H, '~', 00H, '~', 00H, '~', 00H, '~'
	DB	00H, '~', 00H, '~', 00H, '~', 00H, '~', 00H, '~', 00H, '~', 00H
	DB	'~', 00H, '~', 00H, '~', 00H, '~', 00H, '~', 00H, '~', 00H, '~'
	DB	00H, '~', 00H, 0dH, 00H, 0aH, 00H, 'V', 00H, 'i', 00H, 'e', 00H
	DB	'w', 00H, ' ', 00H, 'A', 00H, 'v', 00H, 'a', 00H, 'i', 00H, 'l'
	DB	00H, 'a', 00H, 'b', 00H, 'l', 00H, 'e', 00H, ' ', 00H, 'C', 00H
	DB	'o', 00H, 'd', 00H, 'e', 00H, 's', 00H, ':', 00H, ' ', 00H, 'D'
	DB	00H, 'P', 00H, 'A', 00H, 'D', 00H, '-', 00H, 'D', 00H, 'O', 00H
	DB	'W', 00H, 'N', 00H, '(', 00H, 'x', 00H, '4', 00H, ')', 00H, 0dH
	DB	00H, 0aH, 00H, 'A', 00H, 'c', 00H, 't', 00H, 'i', 00H, 'v', 00H
	DB	'a', 00H, 't', 00H, 'e', 00H, ' ', 00H, 'A', 00H, 'l', 00H, 'l'
	DB	00H, ' ', 00H, 'C', 00H, 'o', 00H, 'd', 00H, 'e', 00H, 's', 00H
	DB	':', 00H, ' ', 00H, 'D', 00H, 'P', 00H, 'A', 00H, 'D', 00H, '-'
	DB	00H, 'U', 00H, 'P', 00H, '(', 00H, 'x', 00H, '4', 00H, ')', 00H
	DB	0dH, 00H, 0aH, 00H, 00H			; `string'
; Function compile flags: /Ogsu

	.code

?Trainer584108C3@@YAXXZ	PROC NEAR			; Trainer584108C3, COMDAT

; Begin code for function: ?Trainer584108C3@@YAXXZ
; Line 12
	mflr         r12
	stw          r12,-8(r1)
	stwu         r1,-60h(r1)
.endprolog
$M76725:
; Line 13
	lis          r9,?g_strButtons@@3PAPB_WA
	lis          r8,??_C@_1PA@DDGCMKHB@A?$AAs?$AAs?$AAa?$AAu?$AAl?$AAt?$AA?5?$AAH?$AAe?$AAr?$AAo?$AAe?$AAs?$AA?5?$AA2?$AA?5?$AA?$CL?$AA?5?$AA4?$AA?$AN?$AA?6?$AA?$HO?$AA?$HO?$AA?$HO?$AA?$HO?$AA?$HO?$AA?$HO?$AA?$HO?$AA?$HO?$AA?$HO?$AA?$HO?$AA@
	lis          r6,??_C@_1CK@NNKGKBGB@M?$AAo?$AAr?$AAe?$AA?5?$AAa?$AAt?$AA?5?$AAT?$AA3?$AAf?$AAu?$AAr?$AAy?$AA?4?$AAc?$AAo?$AA?4?$AAu?$AAk?$AA?$AA?$AA@
	lis          r11,?g_xol@@3U_XOVERLAPPED@@A
	lis          r10,?g_mb_result@@3U_MESSAGEBOX_RESULT@@A
	addi         r11,r11,?g_xol@@3U_XOVERLAPPED@@A
	addi         r7,r9,?g_strButtons@@3PAPB_WA
	addi         r5,r8,??_C@_1PA@DDGCMKHB@A?$AAs?$AAs?$AAa?$AAu?$AAl?$AAt?$AA?5?$AAH?$AAe?$AAr?$AAo?$AAe?$AAs?$AA?5?$AA2?$AA?5?$AA?$CL?$AA?5?$AA4?$AA?$AN?$AA?6?$AA?$HO?$AA?$HO?$AA?$HO?$AA?$HO?$AA?$HO?$AA?$HO?$AA?$HO?$AA?$HO?$AA?$HO?$AA?$HO?$AA@
	stw          r11,54h(r1)
	addi         r4,r6,??_C@_1CK@NNKGKBGB@M?$AAo?$AAr?$AAe?$AA?5?$AAa?$AAt?$AA?5?$AAT?$AA3?$AAf?$AAu?$AAr?$AAy?$AA?4?$AAc?$AAo?$AA?4?$AAu?$AAk?$AA?$AA?$AA@
	addi         r10,r10,?g_mb_result@@3U_MESSAGEBOX_RESULT@@A
	lis          r9,1
	li           r8,0
	li           r6,1
	li           r3,0
	bl           XShowMessageBoxUI
	lis          r11,?Prompt@@3KA
	stw          r3,?Prompt@@3KA(r11)
; Line 15
	addi         r1,r1,96		; 60h
	lwz          r12,-8(r1)
	mtlr         r12
	blr
$M76726:
; End code for function: ?Trainer584108C3@@YAXXZ
?Trainer584108C3@@YAXXZ ENDP
							; Trainer584108C3
PUBLIC	?BFHLCheckHealth@@YAXXZ				; BFHLCheckHealth
; Function compile flags: /Odsu

	.code

?BFHLCheckHealth@@YAXXZ	PROC NEAR			; BFHLCheckHealth, COMDAT

; Begin code for function: ?BFHLCheckHealth@@YAXXZ
; File c:\users\t3fur\desktop\viper engine 1.4\trainer\battlefield hard.h
; Line 14
	lfs          fr12,14h(r28)
; Line 16
	mflr         r7
; Line 19
	bl           ?Saveregs@@YAXXZ
; Line 23
	lis          r11,?MYPtr1@@3KA
	mr           r10,r28
	stw          r10,?MYPtr1@@3KA(r11)
; Line 26
	lis          r11,?InfHealth@@3_NA
	lbz          r11,?InfHealth@@3_NA(r11)
	cmpwi        cr6,r11,1
	bne          cr6,$LN1@BFHLCheckH
; Line 28
	lis          r11,?MYPtr1@@3KA
	lwz          r11,?MYPtr1@@3KA(r11)
	lis          r10,?MYPtr1@@3KA
	lwz          r10,?MYPtr1@@3KA(r10)
	lwz          r11,14h(r11)
	stw          r11,10h(r10)
$LN1@BFHLCheckH:
; Line 31
	bl           ?Loadregs@@YAXXZ
; Line 37
	fmuls        fr1,fr12,fr13
; Line 38
	addi         r1,r1,128		; 80h
; Line 39
	lfd          fr31,-30h(r1)
; Line 41
	mtlr         r7
; Line 42
	lis          r7,-30393		; 8947h
; Line 43
	ori          r7,r7,2136		; 858h
; Line 44
	mtctr        r7
; Line 45
	bctr
; End code for function: ?BFHLCheckHealth@@YAXXZ
?BFHLCheckHealth@@YAXXZ ENDP
							; BFHLCheckHealth
PUBLIC	?BFHLSetHooks@@YAXXZ				; BFHLSetHooks
;	COMDAT .pdata
.pdata	SEGMENT
$T76735	DD	?BFHLSetHooks@@YAXXZ
	DD	040001003H
; Function compile flags: /Ogsu

	.code

?BFHLSetHooks@@YAXXZ PROC NEAR				; BFHLSetHooks, COMDAT

; Begin code for function: ?BFHLSetHooks@@YAXXZ
; Line 54
	mflr         r12
	stw          r12,-8(r1)
	stwu         r1,-60h(r1)
.endprolog
$M76733:
; Line 55
	lis          r11,addr
	lis          r10,?BFHLCheckHealth@@YAXXZ
	li           r5,7
	addi         r4,r10,?BFHLCheckHealth@@YAXXZ
	lwz          r3,addr(r11)
	bl           ?Caveme@@YAXKPAXE@Z
; Line 56
	lis          r10,?HooksSet@@3_NA
	li           r11,1
	stb          r11,?HooksSet@@3_NA(r10)
; Line 57
	addi         r1,r1,96		; 60h
	lwz          r12,-8(r1)
	mtlr         r12
	blr
$M76734:
; End code for function: ?BFHLSetHooks@@YAXXZ
?BFHLSetHooks@@YAXXZ ENDP
							; BFHLSetHooks
PUBLIC	?BFHSearch@@YAXXZ				; BFHSearch
	.bss
addr_Special DD	01H DUP (?)
;	COMDAT .pdata
.pdata	SEGMENT
$T76741	DD	?BFHSearch@@YAXXZ
	DD	040003704H
; Function compile flags: /Ogsu

	.code

?BFHSearch@@YAXXZ PROC NEAR				; BFHSearch, COMDAT

; Begin code for function: ?BFHSearch@@YAXXZ
; Line 60
	mflr         r12
	stw          r12,-8(r1)
	std          r31,-10h(r1)
	stwu         r1,-60h(r1)
.endprolog
$M76739:
; Line 61
	lis          r11,addr_Special
	addi         r31,r11,addr_Special
	lbz          r11,-3354h(r31)
	cmplwi       cr6,r11,1
	bne          cr6,$LN1@BFHSearch
; Line 63
	lis          r11,?BFHLbuf@@3PAKA
	li           r7,1
	addi         r5,r11,?BFHLbuf@@3PAKA
	li           r6,2
	lis          r4,-30208		; 8A00h
	lis          r3,-30464		; 8900h
	bl           ?GetAddr@@YAKKKPAKKK@Z
	addi         r11,r3,4
; Line 64
	lis          r10,?BFHLbufAmmo@@3PAKA
	stw          r11,3250h(r31)
	li           r7,1
	addi         r5,r10,?BFHLbufAmmo@@3PAKA
	li           r6,2
	lis          r4,-30464		; 8900h
	lis          r3,-30720		; 8800h
	bl           ?GetAddr@@YAKKKPAKKK@Z
	addi         r11,r3,4
; Line 65
	lis          r10,?BFHLbufstam@@3PAKA
	stw          r11,-3348h(r31)
	li           r7,1
	addi         r5,r10,?BFHLbufstam@@3PAKA
	li           r6,2
	lis          r4,-30464		; 8900h
	lis          r3,-30720		; 8800h
	bl           ?GetAddr@@YAKKKPAKKK@Z
	addi         r11,r3,4
; Line 66
	lis          r10,?BFHLbufspec@@3PAKA
	stw          r11,-110h(r31)
	li           r7,1
	addi         r5,r10,?BFHLbufspec@@3PAKA
	li           r6,2
	lis          r4,-30208		; 8A00h
	lis          r3,-30464		; 8900h
	bl           ?GetAddr@@YAKKKPAKKK@Z
; Line 68
	lis          r10,?HooksSet@@3_NA
	addi         r11,r3,4
	stw          r11,0(r31)
	lbz          r11,?HooksSet@@3_NA(r10)
	cmplwi       r11,0
	bne          $LN1@BFHSearch
; Line 70
	bl           ?BFHLSetHooks@@YAXXZ
$LN1@BFHSearch:
; Line 73
	addi         r1,r1,96		; 60h
	lwz          r12,-8(r1)
	mtlr         r12
	ld           r31,-10h(r1)
	blr
$M76740:
; End code for function: ?BFHSearch@@YAXXZ
?BFHSearch@@YAXXZ ENDP
							; BFHSearch
PUBLIC	??_C@_1PI@FJLNHDFN@B?$AAa?$AAt?$AAt?$AAl?$AAe?$AAF?$AAi?$AAe?$AAl?$AAd?$AA?5?$AAH?$AAa?$AAr?$AAd?$AAl?$AAi?$AAn?$AAe?$AA?5?$AA?$CL?$AA?5?$AA4?$AA?$AN?$AA?6?$AA?$HO?$AA?$HO?$AA?$HO?$AA?$HO?$AA?$HO?$AA?$HO?$AA@ ; `string'
PUBLIC	?Trainer454109E0@@YAXXZ				; Trainer454109E0
	.bss
Gamexex	DB	01H DUP (?)
;	COMDAT .pdata
.pdata	SEGMENT
$T76747	DD	?Trainer454109E0@@YAXXZ
	DD	040001d03H
;	COMDAT ??_C@_1PI@FJLNHDFN@B?$AAa?$AAt?$AAt?$AAl?$AAe?$AAF?$AAi?$AAe?$AAl?$AAd?$AA?5?$AAH?$AAa?$AAr?$AAd?$AAl?$AAi?$AAn?$AAe?$AA?5?$AA?$CL?$AA?5?$AA4?$AA?$AN?$AA?6?$AA?$HO?$AA?$HO?$AA?$HO?$AA?$HO?$AA?$HO?$AA?$HO?$AA@
.rdata	SEGMENT
??_C@_1PI@FJLNHDFN@B?$AAa?$AAt?$AAt?$AAl?$AAe?$AAF?$AAi?$AAe?$AAl?$AAd?$AA?5?$AAH?$AAa?$AAr?$AAd?$AAl?$AAi?$AAn?$AAe?$AA?5?$AA?$CL?$AA?5?$AA4?$AA?$AN?$AA?6?$AA?$HO?$AA?$HO?$AA?$HO?$AA?$HO?$AA?$HO?$AA?$HO?$AA@ DB 00H
	DB	'B', 00H, 'a', 00H, 't', 00H, 't', 00H, 'l', 00H, 'e', 00H, 'F'
	DB	00H, 'i', 00H, 'e', 00H, 'l', 00H, 'd', 00H, ' ', 00H, 'H', 00H
	DB	'a', 00H, 'r', 00H, 'd', 00H, 'l', 00H, 'i', 00H, 'n', 00H, 'e'
	DB	00H, ' ', 00H, '+', 00H, ' ', 00H, '4', 00H, 0dH, 00H, 0aH, 00H
	DB	'~', 00H, '~', 00H, '~', 00H, '~', 00H, '~', 00H, '~', 00H, '~'
	DB	00H, '~', 00H, '~', 00H, '~', 00H, '~', 00H, '~', 00H, '~', 00H
	DB	'~', 00H, '~', 00H, '~', 00H, '~', 00H, '~', 00H, '~', 00H, '~'
	DB	00H, '~', 00H, '~', 00H, '~', 00H, '~', 00H, '~', 00H, 0dH, 00H
	DB	0aH, 00H, 'V', 00H, 'i', 00H, 'e', 00H, 'w', 00H, ' ', 00H, 'A'
	DB	00H, 'v', 00H, 'a', 00H, 'i', 00H, 'l', 00H, 'a', 00H, 'b', 00H
	DB	'l', 00H, 'e', 00H, ' ', 00H, 'C', 00H, 'o', 00H, 'd', 00H, 'e'
	DB	00H, 's', 00H, ':', 00H, ' ', 00H, 'D', 00H, 'P', 00H, 'A', 00H
	DB	'D', 00H, '-', 00H, 'D', 00H, 'O', 00H, 'W', 00H, 'N', 00H, '('
	DB	00H, 'x', 00H, '4', 00H, ')', 00H, 0dH, 00H, 0aH, 00H, 'A', 00H
	DB	'c', 00H, 't', 00H, 'i', 00H, 'v', 00H, 'a', 00H, 't', 00H, 'e'
	DB	00H, ' ', 00H, 'A', 00H, 'l', 00H, 'l', 00H, ' ', 00H, 'C', 00H
	DB	'o', 00H, 'd', 00H, 'e', 00H, 's', 00H, ':', 00H, ' ', 00H, 'D'
	DB	00H, 'P', 00H, 'A', 00H, 'D', 00H, '-', 00H, 'U', 00H, 'P', 00H
	DB	'(', 00H, 'x', 00H, '4', 00H, ')', 00H, 0dH, 00H, 0aH, 00H, 00H ; `string'
; Function compile flags: /Ogsu

	.code

?Trainer454109E0@@YAXXZ	PROC NEAR			; Trainer454109E0, COMDAT

; Begin code for function: ?Trainer454109E0@@YAXXZ
; Line 76
	mflr         r12
	stw          r12,-8(r1)
	stwu         r1,-60h(r1)
.endprolog
$M76745:
; Line 77
	lis          r9,?g_strButtons@@3PAPB_WA
	lis          r8,??_C@_1PI@FJLNHDFN@B?$AAa?$AAt?$AAt?$AAl?$AAe?$AAF?$AAi?$AAe?$AAl?$AAd?$AA?5?$AAH?$AAa?$AAr?$AAd?$AAl?$AAi?$AAn?$AAe?$AA?5?$AA?$CL?$AA?5?$AA4?$AA?$AN?$AA?6?$AA?$HO?$AA?$HO?$AA?$HO?$AA?$HO?$AA?$HO?$AA?$HO?$AA@
	lis          r6,??_C@_1CK@NNKGKBGB@M?$AAo?$AAr?$AAe?$AA?5?$AAa?$AAt?$AA?5?$AAT?$AA3?$AAf?$AAu?$AAr?$AAy?$AA?4?$AAc?$AAo?$AA?4?$AAu?$AAk?$AA?$AA?$AA@
	lis          r11,?g_xol@@3U_XOVERLAPPED@@A
	lis          r10,?g_mb_result@@3U_MESSAGEBOX_RESULT@@A
	addi         r11,r11,?g_xol@@3U_XOVERLAPPED@@A
	addi         r7,r9,?g_strButtons@@3PAPB_WA
	addi         r5,r8,??_C@_1PI@FJLNHDFN@B?$AAa?$AAt?$AAt?$AAl?$AAe?$AAF?$AAi?$AAe?$AAl?$AAd?$AA?5?$AAH?$AAa?$AAr?$AAd?$AAl?$AAi?$AAn?$AAe?$AA?5?$AA?$CL?$AA?5?$AA4?$AA?$AN?$AA?6?$AA?$HO?$AA?$HO?$AA?$HO?$AA?$HO?$AA?$HO?$AA?$HO?$AA@
	stw          r11,54h(r1)
	addi         r4,r6,??_C@_1CK@NNKGKBGB@M?$AAo?$AAr?$AAe?$AA?5?$AAa?$AAt?$AA?5?$AAT?$AA3?$AAf?$AAu?$AAr?$AAy?$AA?4?$AAc?$AAo?$AA?4?$AAu?$AAk?$AA?$AA?$AA@
	addi         r10,r10,?g_mb_result@@3U_MESSAGEBOX_RESULT@@A
	lis          r9,1
	li           r8,0
	li           r6,1
	li           r3,0
	bl           XShowMessageBoxUI
; Line 79
	lis          r10,?Prompt@@3KA
	lis          r9,Gamexex
	li           r11,1
	stw          r3,?Prompt@@3KA(r10)
	stb          r11,Gamexex(r9)
; Line 80
	bl           ?BFHSearch@@YAXXZ
; Line 82
	addi         r1,r1,96		; 60h
	lwz          r12,-8(r1)
	mtlr         r12
	blr
$M76746:
; End code for function: ?Trainer454109E0@@YAXXZ
?Trainer454109E0@@YAXXZ ENDP
							; Trainer454109E0
PUBLIC	??_C@_1BAG@JHJBAHHD@C?$AAa?$AAl?$AAl?$AA?5?$AAo?$AAf?$AA?5?$AAD?$AAu?$AAt?$AAy?$AA?5?$AAB?$AAl?$AAo?$AAp?$AAs?$AA?5?$AA?$CL?$AA3?$AA?1?$AA5?$AA?5?$AAT?$AAr?$AAa?$AAi?$AAn?$AAe?$AAr?$AA?$AN?$AA@ ; `string'
PUBLIC	?Trainer41560855@@YAXXZ				; Trainer41560855
;	COMDAT .pdata
; File c:\users\t3fur\desktop\viper engine 1.4\trainer\codblack ops tu11.h
.pdata	SEGMENT
$T76753	DD	?Trainer41560855@@YAXXZ
	DD	040001903H
;	COMDAT ??_C@_1BAG@JHJBAHHD@C?$AAa?$AAl?$AAl?$AA?5?$AAo?$AAf?$AA?5?$AAD?$AAu?$AAt?$AAy?$AA?5?$AAB?$AAl?$AAo?$AAp?$AAs?$AA?5?$AA?$CL?$AA3?$AA?1?$AA5?$AA?5?$AAT?$AAr?$AAa?$AAi?$AAn?$AAe?$AAr?$AA?$AN?$AA@
.rdata	SEGMENT
??_C@_1BAG@JHJBAHHD@C?$AAa?$AAl?$AAl?$AA?5?$AAo?$AAf?$AA?5?$AAD?$AAu?$AAt?$AAy?$AA?5?$AAB?$AAl?$AAo?$AAp?$AAs?$AA?5?$AA?$CL?$AA3?$AA?1?$AA5?$AA?5?$AAT?$AAr?$AAa?$AAi?$AAn?$AAe?$AAr?$AA?$AN?$AA@ DB 00H
	DB	'C', 00H, 'a', 00H, 'l', 00H, 'l', 00H, ' ', 00H, 'o', 00H, 'f'
	DB	00H, ' ', 00H, 'D', 00H, 'u', 00H, 't', 00H, 'y', 00H, ' ', 00H
	DB	'B', 00H, 'l', 00H, 'o', 00H, 'p', 00H, 's', 00H, ' ', 00H, '+'
	DB	00H, '3', 00H, '/', 00H, '5', 00H, ' ', 00H, 'T', 00H, 'r', 00H
	DB	'a', 00H, 'i', 00H, 'n', 00H, 'e', 00H, 'r', 00H, 0dH, 00H, 0aH
	DB	00H, '~', 00H, '~', 00H, '~', 00H, '~', 00H, '~', 00H, '~', 00H
	DB	'~', 00H, '~', 00H, '~', 00H, '~', 00H, '~', 00H, '~', 00H, '~'
	DB	00H, '~', 00H, '~', 00H, '~', 00H, '~', 00H, '~', 00H, '~', 00H
	DB	'~', 00H, '~', 00H, '~', 00H, '~', 00H, '~', 00H, '~', 00H, 0dH
	DB	00H, 0aH, 00H, 'V', 00H, 'i', 00H, 'e', 00H, 'w', 00H, ' ', 00H
	DB	'A', 00H, 'v', 00H, 'a', 00H, 'i', 00H, 'l', 00H, 'a', 00H, 'b'
	DB	00H, 'l', 00H, 'e', 00H, ' ', 00H, 'C', 00H, 'o', 00H, 'd', 00H
	DB	'e', 00H, 's', 00H, ':', 00H, ' ', 00H, 'D', 00H, 'P', 00H, 'A'
	DB	00H, 'D', 00H, '-', 00H, 'D', 00H, 'O', 00H, 'W', 00H, 'N', 00H
	DB	'(', 00H, 'x', 00H, '4', 00H, ')', 00H, 0dH, 00H, 0aH, 00H, 'A'
	DB	00H, 'c', 00H, 't', 00H, 'i', 00H, 'v', 00H, 'a', 00H, 't', 00H
	DB	'e', 00H, ' ', 00H, 'A', 00H, 'l', 00H, 'l', 00H, ' ', 00H, 'C'
	DB	00H, 'o', 00H, 'd', 00H, 'e', 00H, 's', 00H, ':', 00H, ' ', 00H
	DB	'D', 00H, 'P', 00H, 'A', 00H, 'D', 00H, '-', 00H, 'U', 00H, 'P'
	DB	00H, '(', 00H, 'x', 00H, '4', 00H, ')', 00H, 0dH, 00H, 0aH, 00H
	DB	00H						; `string'
; Function compile flags: /Ogsu

	.code

?Trainer41560855@@YAXXZ	PROC NEAR			; Trainer41560855, COMDAT

; Begin code for function: ?Trainer41560855@@YAXXZ
; Line 17
	mflr         r12
	stw          r12,-8(r1)
	stwu         r1,-60h(r1)
.endprolog
$M76751:
; Line 18
	lis          r9,?g_strButtons@@3PAPB_WA
	lis          r8,??_C@_1BAG@JHJBAHHD@C?$AAa?$AAl?$AAl?$AA?5?$AAo?$AAf?$AA?5?$AAD?$AAu?$AAt?$AAy?$AA?5?$AAB?$AAl?$AAo?$AAp?$AAs?$AA?5?$AA?$CL?$AA3?$AA?1?$AA5?$AA?5?$AAT?$AAr?$AAa?$AAi?$AAn?$AAe?$AAr?$AA?$AN?$AA@
	lis          r6,??_C@_1DC@JKLNPENH@h?$AAt?$AAt?$AAp?$AAs?$AA?3?$AA?1?$AA?1?$AAw?$AAw?$AAw?$AA?4?$AAt?$AA3?$AAf?$AAu?$AAr?$AAy?$AA?4?$AAc?$AAo?$AA?4?$AAu?$AAk?$AA?$AA?$AA@
	lis          r11,?g_xol@@3U_XOVERLAPPED@@A
	lis          r10,?g_mb_result@@3U_MESSAGEBOX_RESULT@@A
	addi         r11,r11,?g_xol@@3U_XOVERLAPPED@@A
	addi         r7,r9,?g_strButtons@@3PAPB_WA
	addi         r5,r8,??_C@_1BAG@JHJBAHHD@C?$AAa?$AAl?$AAl?$AA?5?$AAo?$AAf?$AA?5?$AAD?$AAu?$AAt?$AAy?$AA?5?$AAB?$AAl?$AAo?$AAp?$AAs?$AA?5?$AA?$CL?$AA3?$AA?1?$AA5?$AA?5?$AAT?$AAr?$AAa?$AAi?$AAn?$AAe?$AAr?$AA?$AN?$AA@
	stw          r11,54h(r1)
	addi         r4,r6,??_C@_1DC@JKLNPENH@h?$AAt?$AAt?$AAp?$AAs?$AA?3?$AA?1?$AA?1?$AAw?$AAw?$AAw?$AA?4?$AAt?$AA3?$AAf?$AAu?$AAr?$AAy?$AA?4?$AAc?$AAo?$AA?4?$AAu?$AAk?$AA?$AA?$AA@
	addi         r10,r10,?g_mb_result@@3U_MESSAGEBOX_RESULT@@A
	lis          r9,1
	li           r8,0
	li           r6,1
	li           r3,0
	bl           XShowMessageBoxUI
	lis          r11,?Prompt@@3KA
	stw          r3,?Prompt@@3KA(r11)
; Line 19
	addi         r1,r1,96		; 60h
	lwz          r12,-8(r1)
	mtlr         r12
	blr
$M76752:
; End code for function: ?Trainer41560855@@YAXXZ
?Trainer41560855@@YAXXZ ENDP
							; Trainer41560855
PUBLIC	??_C@_1CM@DFKOBNKL@?5?$AAM?$AAo?$AAr?$AAe?$AA?5?$AAa?$AAt?$AA?5?$AAT?$AA3?$AAf?$AAu?$AAr?$AAy?$AA?4?$AAc?$AAo?$AA?4?$AAu?$AAk?$AA?$AA?$AA@ ; `string'
PUBLIC	??_C@_1PG@BILACOGM@C?$AAo?$AAd?$AA?5?$AAB?$AAl?$AAo?$AAp?$AAs?$AA2?$AA?5?$AAT?$AAU?$AA1?$AA8?$AA?5?$AAT?$AAr?$AAa?$AAi?$AAn?$AAe?$AAr?$AA?$AN?$AA?6?$AA?$HO?$AA?$HO?$AA?$HO?$AA?$HO?$AA?$HO?$AA?$HO?$AA?$HO?$AA@ ; `string'
PUBLIC	?Trainer415608C3@@YAXXZ				; Trainer415608C3
;	COMDAT .pdata
; File c:\users\t3fur\desktop\viper engine 1.4\trainer\cod black ops2 tu18.h
.pdata	SEGMENT
$T76759	DD	?Trainer415608C3@@YAXXZ
	DD	040001903H
;	COMDAT ??_C@_1CM@DFKOBNKL@?5?$AAM?$AAo?$AAr?$AAe?$AA?5?$AAa?$AAt?$AA?5?$AAT?$AA3?$AAf?$AAu?$AAr?$AAy?$AA?4?$AAc?$AAo?$AA?4?$AAu?$AAk?$AA?$AA?$AA@
.rdata	SEGMENT
??_C@_1CM@DFKOBNKL@?5?$AAM?$AAo?$AAr?$AAe?$AA?5?$AAa?$AAt?$AA?5?$AAT?$AA3?$AAf?$AAu?$AAr?$AAy?$AA?4?$AAc?$AAo?$AA?4?$AAu?$AAk?$AA?$AA?$AA@ DB 00H
	DB	' ', 00H, 'M', 00H, 'o', 00H, 'r', 00H, 'e', 00H, ' ', 00H, 'a'
	DB	00H, 't', 00H, ' ', 00H, 'T', 00H, '3', 00H, 'f', 00H, 'u', 00H
	DB	'r', 00H, 'y', 00H, '.', 00H, 'c', 00H, 'o', 00H, '.', 00H, 'u'
	DB	00H, 'k', 00H, 00H				; `string'
;	COMDAT ??_C@_1PG@BILACOGM@C?$AAo?$AAd?$AA?5?$AAB?$AAl?$AAo?$AAp?$AAs?$AA2?$AA?5?$AAT?$AAU?$AA1?$AA8?$AA?5?$AAT?$AAr?$AAa?$AAi?$AAn?$AAe?$AAr?$AA?$AN?$AA?6?$AA?$HO?$AA?$HO?$AA?$HO?$AA?$HO?$AA?$HO?$AA?$HO?$AA?$HO?$AA@
.rdata	SEGMENT
??_C@_1PG@BILACOGM@C?$AAo?$AAd?$AA?5?$AAB?$AAl?$AAo?$AAp?$AAs?$AA2?$AA?5?$AAT?$AAU?$AA1?$AA8?$AA?5?$AAT?$AAr?$AAa?$AAi?$AAn?$AAe?$AAr?$AA?$AN?$AA?6?$AA?$HO?$AA?$HO?$AA?$HO?$AA?$HO?$AA?$HO?$AA?$HO?$AA?$HO?$AA@ DB 00H
	DB	'C', 00H, 'o', 00H, 'd', 00H, ' ', 00H, 'B', 00H, 'l', 00H, 'o'
	DB	00H, 'p', 00H, 's', 00H, '2', 00H, ' ', 00H, 'T', 00H, 'U', 00H
	DB	'1', 00H, '8', 00H, ' ', 00H, 'T', 00H, 'r', 00H, 'a', 00H, 'i'
	DB	00H, 'n', 00H, 'e', 00H, 'r', 00H, 0dH, 00H, 0aH, 00H, '~', 00H
	DB	'~', 00H, '~', 00H, '~', 00H, '~', 00H, '~', 00H, '~', 00H, '~'
	DB	00H, '~', 00H, '~', 00H, '~', 00H, '~', 00H, '~', 00H, '~', 00H
	DB	'~', 00H, '~', 00H, '~', 00H, '~', 00H, '~', 00H, '~', 00H, '~'
	DB	00H, '~', 00H, '~', 00H, '~', 00H, '~', 00H, 0dH, 00H, 0aH, 00H
	DB	'V', 00H, 'i', 00H, 'e', 00H, 'w', 00H, ' ', 00H, 'A', 00H, 'v'
	DB	00H, 'a', 00H, 'i', 00H, 'l', 00H, 'a', 00H, 'b', 00H, 'l', 00H
	DB	'e', 00H, ' ', 00H, 'C', 00H, 'o', 00H, 'd', 00H, 'e', 00H, 's'
	DB	00H, ':', 00H, ' ', 00H, 'D', 00H, 'P', 00H, 'A', 00H, 'D', 00H
	DB	'-', 00H, 'D', 00H, 'O', 00H, 'W', 00H, 'N', 00H, '(', 00H, 'x'
	DB	00H, '4', 00H, ')', 00H, 0dH, 00H, 0aH, 00H, 'A', 00H, 'c', 00H
	DB	't', 00H, 'i', 00H, 'v', 00H, 'a', 00H, 't', 00H, 'e', 00H, ' '
	DB	00H, 'A', 00H, 'l', 00H, 'l', 00H, ' ', 00H, 'C', 00H, 'o', 00H
	DB	'd', 00H, 'e', 00H, 's', 00H, ':', 00H, ' ', 00H, 'D', 00H, 'P'
	DB	00H, 'A', 00H, 'D', 00H, '-', 00H, 'U', 00H, 'P', 00H, '(', 00H
	DB	'x', 00H, '4', 00H, ')', 00H, 0dH, 00H, 0aH, 00H, 00H ; `string'
; Function compile flags: /Ogsu

	.code

?Trainer415608C3@@YAXXZ	PROC NEAR			; Trainer415608C3, COMDAT

; Begin code for function: ?Trainer415608C3@@YAXXZ
; Line 10
	mflr         r12
	stw          r12,-8(r1)
	stwu         r1,-60h(r1)
.endprolog
$M76757:
; Line 11
	lis          r9,?g_strButtons@@3PAPB_WA
	lis          r8,??_C@_1PG@BILACOGM@C?$AAo?$AAd?$AA?5?$AAB?$AAl?$AAo?$AAp?$AAs?$AA2?$AA?5?$AAT?$AAU?$AA1?$AA8?$AA?5?$AAT?$AAr?$AAa?$AAi?$AAn?$AAe?$AAr?$AA?$AN?$AA?6?$AA?$HO?$AA?$HO?$AA?$HO?$AA?$HO?$AA?$HO?$AA?$HO?$AA?$HO?$AA@
	lis          r6,??_C@_1CM@DFKOBNKL@?5?$AAM?$AAo?$AAr?$AAe?$AA?5?$AAa?$AAt?$AA?5?$AAT?$AA3?$AAf?$AAu?$AAr?$AAy?$AA?4?$AAc?$AAo?$AA?4?$AAu?$AAk?$AA?$AA?$AA@
	lis          r11,?g_xol@@3U_XOVERLAPPED@@A
	lis          r10,?g_mb_result@@3U_MESSAGEBOX_RESULT@@A
	addi         r11,r11,?g_xol@@3U_XOVERLAPPED@@A
	addi         r7,r9,?g_strButtons@@3PAPB_WA
	addi         r5,r8,??_C@_1PG@BILACOGM@C?$AAo?$AAd?$AA?5?$AAB?$AAl?$AAo?$AAp?$AAs?$AA2?$AA?5?$AAT?$AAU?$AA1?$AA8?$AA?5?$AAT?$AAr?$AAa?$AAi?$AAn?$AAe?$AAr?$AA?$AN?$AA?6?$AA?$HO?$AA?$HO?$AA?$HO?$AA?$HO?$AA?$HO?$AA?$HO?$AA?$HO?$AA@
	stw          r11,54h(r1)
	addi         r4,r6,??_C@_1CM@DFKOBNKL@?5?$AAM?$AAo?$AAr?$AAe?$AA?5?$AAa?$AAt?$AA?5?$AAT?$AA3?$AAf?$AAu?$AAr?$AAy?$AA?4?$AAc?$AAo?$AA?4?$AAu?$AAk?$AA?$AA?$AA@
	addi         r10,r10,?g_mb_result@@3U_MESSAGEBOX_RESULT@@A
	lis          r9,1
	li           r8,0
	li           r6,1
	li           r3,0
	bl           XShowMessageBoxUI
	lis          r11,?Prompt@@3KA
	stw          r3,?Prompt@@3KA(r11)
; Line 12
	addi         r1,r1,96		; 60h
	lwz          r12,-8(r1)
	mtlr         r12
	blr
$M76758:
; End code for function: ?Trainer415608C3@@YAXXZ
?Trainer415608C3@@YAXXZ ENDP
							; Trainer415608C3
PUBLIC	?blops2Quicklaunch1@@YAXXZ			; blops2Quicklaunch1
;	COMDAT .pdata
.pdata	SEGMENT
$T76765	DD	?blops2Quicklaunch1@@YAXXZ
	DD	040000e03H
; Function compile flags: /Ogsu

	.code

?blops2Quicklaunch1@@YAXXZ PROC NEAR			; blops2Quicklaunch1, COMDAT

; Begin code for function: ?blops2Quicklaunch1@@YAXXZ
; Line 311
	mflr         r12
	stw          r12,-8(r1)
	stwu         r1,-60h(r1)
.endprolog
$M76763:
; Line 312
	lis          r11,?Weaponselect@@3KA
	li           r4,69		; 45h
	lwz          r3,?Weaponselect@@3KA(r11)
	bl           SetDWORD
; Line 313
	lis          r10,?InfAmmoZom@@3_NA
	li           r11,1
	stb          r11,?InfAmmoZom@@3_NA(r10)
; Line 314
	addi         r1,r1,96		; 60h
	lwz          r12,-8(r1)
	mtlr         r12
	blr
$M76764:
; End code for function: ?blops2Quicklaunch1@@YAXXZ
?blops2Quicklaunch1@@YAXXZ ENDP
							; blops2Quicklaunch1
PUBLIC	?blops2Quicklaunch2@@YAXXZ			; blops2Quicklaunch2
;	COMDAT .pdata
.pdata	SEGMENT
$T76771	DD	?blops2Quicklaunch2@@YAXXZ
	DD	040000e03H
; Function compile flags: /Ogsu

	.code

?blops2Quicklaunch2@@YAXXZ PROC NEAR			; blops2Quicklaunch2, COMDAT

; Begin code for function: ?blops2Quicklaunch2@@YAXXZ
; Line 320
	mflr         r12
	stw          r12,-8(r1)
	stwu         r1,-60h(r1)
.endprolog
$M76769:
; Line 321
	lis          r11,?Weaponselect@@3KA
	li           r4,72		; 48h
	lwz          r3,?Weaponselect@@3KA(r11)
	bl           SetDWORD
; Line 322
	lis          r10,?InfAmmoZom@@3_NA
	li           r11,1
	stb          r11,?InfAmmoZom@@3_NA(r10)
; Line 323
	addi         r1,r1,96		; 60h
	lwz          r12,-8(r1)
	mtlr         r12
	blr
$M76770:
; End code for function: ?blops2Quicklaunch2@@YAXXZ
?blops2Quicklaunch2@@YAXXZ ENDP
							; blops2Quicklaunch2
PUBLIC	?blops2Quicklaunch3@@YAXXZ			; blops2Quicklaunch3
;	COMDAT .pdata
.pdata	SEGMENT
$T76777	DD	?blops2Quicklaunch3@@YAXXZ
	DD	040000e03H
; Function compile flags: /Ogsu

	.code

?blops2Quicklaunch3@@YAXXZ PROC NEAR			; blops2Quicklaunch3, COMDAT

; Begin code for function: ?blops2Quicklaunch3@@YAXXZ
; Line 327
	mflr         r12
	stw          r12,-8(r1)
	stwu         r1,-60h(r1)
.endprolog
$M76775:
; Line 328
	lis          r11,?Weaponselect@@3KA
	li           r4,70		; 46h
	lwz          r3,?Weaponselect@@3KA(r11)
	bl           SetDWORD
; Line 329
	lis          r10,?InfAmmoZom@@3_NA
	li           r11,1
	stb          r11,?InfAmmoZom@@3_NA(r10)
; Line 330
	addi         r1,r1,96		; 60h
	lwz          r12,-8(r1)
	mtlr         r12
	blr
$M76776:
; End code for function: ?blops2Quicklaunch3@@YAXXZ
?blops2Quicklaunch3@@YAXXZ ENDP
							; blops2Quicklaunch3
PUBLIC	?blops2Quicklaunch4@@YAXXZ			; blops2Quicklaunch4
;	COMDAT .pdata
.pdata	SEGMENT
$T76783	DD	?blops2Quicklaunch4@@YAXXZ
	DD	040000e03H
; Function compile flags: /Ogsu

	.code

?blops2Quicklaunch4@@YAXXZ PROC NEAR			; blops2Quicklaunch4, COMDAT

; Begin code for function: ?blops2Quicklaunch4@@YAXXZ
; Line 334
	mflr         r12
	stw          r12,-8(r1)
	stwu         r1,-60h(r1)
.endprolog
$M76781:
; Line 335
	lis          r11,?Weaponselect@@3KA
	li           r4,71		; 47h
	lwz          r3,?Weaponselect@@3KA(r11)
	bl           SetDWORD
; Line 336
	lis          r10,?InfAmmoZom@@3_NA
	li           r11,1
	stb          r11,?InfAmmoZom@@3_NA(r10)
; Line 337
	addi         r1,r1,96		; 60h
	lwz          r12,-8(r1)
	mtlr         r12
	blr
$M76782:
; End code for function: ?blops2Quicklaunch4@@YAXXZ
?blops2Quicklaunch4@@YAXXZ ENDP
							; blops2Quicklaunch4
PUBLIC	?blops2Quicklaunch5@@YAXXZ			; blops2Quicklaunch5
;	COMDAT .pdata
.pdata	SEGMENT
$T76789	DD	?blops2Quicklaunch5@@YAXXZ
	DD	040000e03H
; Function compile flags: /Ogsu

	.code

?blops2Quicklaunch5@@YAXXZ PROC NEAR			; blops2Quicklaunch5, COMDAT

; Begin code for function: ?blops2Quicklaunch5@@YAXXZ
; Line 341
	mflr         r12
	stw          r12,-8(r1)
	stwu         r1,-60h(r1)
.endprolog
$M76787:
; Line 342
	lis          r11,?Weaponselect@@3KA
	li           r4,65		; 41h
	lwz          r3,?Weaponselect@@3KA(r11)
	bl           SetDWORD
; Line 343
	lis          r10,?InfAmmoZom@@3_NA
	li           r11,1
	stb          r11,?InfAmmoZom@@3_NA(r10)
; Line 344
	addi         r1,r1,96		; 60h
	lwz          r12,-8(r1)
	mtlr         r12
	blr
$M76788:
; End code for function: ?blops2Quicklaunch5@@YAXXZ
?blops2Quicklaunch5@@YAXXZ ENDP
							; blops2Quicklaunch5
PUBLIC	?blops2Quicklaunch6@@YAXXZ			; blops2Quicklaunch6
;	COMDAT .pdata
.pdata	SEGMENT
$T76795	DD	?blops2Quicklaunch6@@YAXXZ
	DD	040000e03H
; Function compile flags: /Ogsu

	.code

?blops2Quicklaunch6@@YAXXZ PROC NEAR			; blops2Quicklaunch6, COMDAT

; Begin code for function: ?blops2Quicklaunch6@@YAXXZ
; Line 348
	mflr         r12
	stw          r12,-8(r1)
	stwu         r1,-60h(r1)
.endprolog
$M76793:
; Line 349
	lis          r11,?Weaponselect@@3KA
	li           r4,66		; 42h
	lwz          r3,?Weaponselect@@3KA(r11)
	bl           SetDWORD
; Line 350
	lis          r10,?InfAmmoZom@@3_NA
	li           r11,1
	stb          r11,?InfAmmoZom@@3_NA(r10)
; Line 351
	addi         r1,r1,96		; 60h
	lwz          r12,-8(r1)
	mtlr         r12
	blr
$M76794:
; End code for function: ?blops2Quicklaunch6@@YAXXZ
?blops2Quicklaunch6@@YAXXZ ENDP
							; blops2Quicklaunch6
PUBLIC	?blops2Quicklaunch7@@YAXXZ			; blops2Quicklaunch7
;	COMDAT .pdata
.pdata	SEGMENT
$T76801	DD	?blops2Quicklaunch7@@YAXXZ
	DD	040000e03H
; Function compile flags: /Ogsu

	.code

?blops2Quicklaunch7@@YAXXZ PROC NEAR			; blops2Quicklaunch7, COMDAT

; Begin code for function: ?blops2Quicklaunch7@@YAXXZ
; Line 355
	mflr         r12
	stw          r12,-8(r1)
	stwu         r1,-60h(r1)
.endprolog
$M76799:
; Line 356
	lis          r11,?Weaponselect@@3KA
	li           r4,67		; 43h
	lwz          r3,?Weaponselect@@3KA(r11)
	bl           SetDWORD
; Line 357
	lis          r10,?InfAmmoZom@@3_NA
	li           r11,1
	stb          r11,?InfAmmoZom@@3_NA(r10)
; Line 358
	addi         r1,r1,96		; 60h
	lwz          r12,-8(r1)
	mtlr         r12
	blr
$M76800:
; End code for function: ?blops2Quicklaunch7@@YAXXZ
?blops2Quicklaunch7@@YAXXZ ENDP
							; blops2Quicklaunch7
PUBLIC	?blops2Quicklaunch8@@YAXXZ			; blops2Quicklaunch8
;	COMDAT .pdata
.pdata	SEGMENT
$T76807	DD	?blops2Quicklaunch8@@YAXXZ
	DD	040000e03H
; Function compile flags: /Ogsu

	.code

?blops2Quicklaunch8@@YAXXZ PROC NEAR			; blops2Quicklaunch8, COMDAT

; Begin code for function: ?blops2Quicklaunch8@@YAXXZ
; Line 362
	mflr         r12
	stw          r12,-8(r1)
	stwu         r1,-60h(r1)
.endprolog
$M76805:
; Line 363
	lis          r11,?Weaponselect@@3KA
	li           r4,68		; 44h
	lwz          r3,?Weaponselect@@3KA(r11)
	bl           SetDWORD
; Line 364
	lis          r10,?InfAmmoZom@@3_NA
	li           r11,1
	stb          r11,?InfAmmoZom@@3_NA(r10)
; Line 365
	addi         r1,r1,96		; 60h
	lwz          r12,-8(r1)
	mtlr         r12
	blr
$M76806:
; End code for function: ?blops2Quicklaunch8@@YAXXZ
?blops2Quicklaunch8@@YAXXZ ENDP
							; blops2Quicklaunch8
PUBLIC	?bbfCheckHealth@@YAXXZ				; bbfCheckHealth
; Function compile flags: /Odsu

	.code

?bbfCheckHealth@@YAXXZ PROC NEAR				; bbfCheckHealth, COMDAT

; Begin code for function: ?bbfCheckHealth@@YAXXZ
; File c:\users\t3fur\desktop\viper engine 1.4\trainer\bound.h
; Line 14
	lfs          fr11,2500h(r10)
; Line 15
	fsel         fr10,fr0,fr0,fr11
; Line 16
	lfs          fr13,1F54h(r9)
; Line 17
	stfs         fr10,20A4h(r31)
; Line 19
	mflr         r16
; Line 22
	bl           ?Saveregs@@YAXXZ
; Line 25
	lis          r11,?MYPtr1@@3KA
	mr           r10,r6
	stw          r10,?MYPtr1@@3KA(r11)
; Line 28
	lis          r11,?MYPtr1@@3KA
	lwz          r11,?MYPtr1@@3KA(r11)
	lis          r10,228		; 0E4h
	ori          r10,r10,56682		; 0DD6Ah
	cmplw        cr6,r11,r10
	bne          cr6,$LN6@bbfCheckHe
	lis          r11,?InfHealth@@3_NA
	lbz          r11,?InfHealth@@3_NA(r11)
	cmpwi        cr6,r11,1
	bne          cr6,$LN6@bbfCheckHe
; Line 31
	lis          r11,?XValue@@3MA
	lfs          fr0,?XValue@@3MA(r11)
	stfs         fr0,20A4h(r31)
$LN6@bbfCheckHe:
; Line 44
	lis          r11,?MYPtr1@@3KA
	lwz          r11,?MYPtr1@@3KA(r11)
	lis          r10,234		; 0EAh
	ori          r10,r10,57966		; 0E26Eh
	cmplw        cr6,r11,r10
	bne          cr6,$LN3@bbfCheckHe
	lis          r11,?OneHitKo@@3_NA
	lbz          r11,?OneHitKo@@3_NA(r11)
	cmpwi        cr6,r11,1
	bne          cr6,$LN3@bbfCheckHe
; Line 48
	lis          r11,?ZValue@@3MA
	lfs          fr0,?ZValue@@3MA(r11)
	stfs         fr0,20A4h(r31)
$LN3@bbfCheckHe:
; Line 62
	bl           ?Loadregs@@YAXXZ
; Line 67
	bne          cr6,br2
; Line 70
	mtlr         r16
; Line 71
	lis          r16,-32140		; 8274h
; Line 72
	ori          r16,r16,64832		; 0FD40h
; Line 73
	mtctr        r16
; Line 74
	bctr
br2:
; Line 77
	mtlr         r16
; Line 78
	lis          r16,-32140		; 8274h
; Line 79
	ori          r16,r16,64840		; 0FD48h
; Line 80
	mtctr        r16
; Line 81
	bctr
; End code for function: ?bbfCheckHealth@@YAXXZ
?bbfCheckHealth@@YAXXZ ENDP
							; bbfCheckHealth
PUBLIC	?bbfCheckWeight@@YAXXZ				; bbfCheckWeight
; Function compile flags: /Odsu

	.code

?bbfCheckWeight@@YAXXZ PROC NEAR				; bbfCheckWeight, COMDAT

; Begin code for function: ?bbfCheckWeight@@YAXXZ
; Line 94
	fadds        fr30,fr0,fr30
; Line 95
	cmplwi       cr6,r31,0
; Line 96
	bne          cr6,br3
; Line 97
	stfs         fr30,20h(r30)
; Line 99
	mflr         r16
; Line 102
	bl           ?Saveregs@@YAXXZ
; Line 105
	lis          r11,?NoWeight@@3_NA
	lbz          r11,?NoWeight@@3_NA(r11)
	cmpwi        cr6,r11,1
	bne          cr6,$LN3@bbfCheckWe
; Line 109
	lis          r11,?ZValue@@3MA
	lfs          fr0,?ZValue@@3MA(r11)
	stfs         fr0,20h(r30)
$LN3@bbfCheckWe:
; Line 123
	bl           ?Loadregs@@YAXXZ
; Line 128
	lwz          r31,4(r30)
; Line 131
	mtlr         r16
; Line 132
	lis          r16,-32136		; 8278h
; Line 133
	ori          r16,r16,17852		; 45BCh
; Line 134
	mtctr        r16
; Line 135
	bctr
br3:
; Line 138
	mtlr         r16
; Line 139
	lis          r16,-32136		; 8278h
; Line 140
	ori          r16,r16,17756		; 455Ch
; Line 141
	mtctr        r16
; Line 142
	bctr
; End code for function: ?bbfCheckWeight@@YAXXZ
?bbfCheckWeight@@YAXXZ ENDP
							; bbfCheckWeight
PUBLIC	?bbfCheckItem@@YAXXZ				; bbfCheckItem
; Function compile flags: /Odsu

	.code

?bbfCheckItem@@YAXXZ PROC NEAR				; bbfCheckItem, COMDAT

; Begin code for function: ?bbfCheckItem@@YAXXZ
; Line 152
	ble          cr6,br4
; Line 153
	subf         r11,r10,r11
; Line 154
	mr           r10,r28
; Line 155
	stw          r11,28h(r31)
; Line 157
	mflr         r16
; Line 160
	bl           ?Saveregs@@YAXXZ
; Line 163
	lis          r11,?InfItems@@3_NA
	lbz          r11,?InfItems@@3_NA(r11)
	cmpwi        cr6,r11,1
	bne          cr6,$LN3@bbfCheckIt
; Line 167
	lis          r11,?Ammo_On@@3KA
	lwz          r11,?Ammo_On@@3KA(r11)
	stw          r11,28h(r31)
$LN3@bbfCheckIt:
; Line 181
	bl           ?Loadregs@@YAXXZ
; Line 186
	stw          r28,78h(r1)
; Line 189
	mtlr         r16
; Line 190
	lis          r16,-32136		; 8278h
; Line 191
	ori          r16,r16,23320		; 5B18h
; Line 192
	mtctr        r16
; Line 193
	bctr
br4:
; Line 196
	mtlr         r16
; Line 197
	lis          r16,-32136		; 8278h
; Line 198
	ori          r16,r16,23324		; 5B1Ch
; Line 199
	mtctr        r16
; Line 200
	bctr
; End code for function: ?bbfCheckItem@@YAXXZ
?bbfCheckItem@@YAXXZ ENDP
							; bbfCheckItem
PUBLIC	?bbfCheckXP@@YAXXZ				; bbfCheckXP
; Function compile flags: /Odsu

	.code

?bbfCheckXP@@YAXXZ PROC NEAR				; bbfCheckXP, COMDAT

; Begin code for function: ?bbfCheckXP@@YAXXZ
; Line 210
	stfs         fr31,20B0h(r31)
; Line 211
	mr           r27,r3
; Line 212
	li           r5,0
; Line 214
	mflr         r16
; Line 217
	bl           ?Saveregs@@YAXXZ
; Line 220
	lis          r11,?Max_XP@@3_NA
	lbz          r11,?Max_XP@@3_NA(r11)
	cmpwi        cr6,r11,1
	bne          cr6,$LN3@bbfCheckXP
; Line 224
	lis          r11,?XPValue@@3MA
	lfs          fr0,?XPValue@@3MA(r11)
	stfs         fr0,20B0h(r31)
$LN3@bbfCheckXP:
; Line 238
	bl           ?Loadregs@@YAXXZ
; Line 241
	fmr          fr1,fr31
; Line 242
	mr           r3,r30
; Line 244
	mtlr         r16
; Line 245
	lis          r16,-32139		; 8275h
; Line 246
	ori          r16,r16,3280		; 0CD0h
; Line 247
	mtctr        r16
; Line 248
	bctr
; End code for function: ?bbfCheckXP@@YAXXZ
?bbfCheckXP@@YAXXZ ENDP
							; bbfCheckXP
PUBLIC	?SetHooks@@YAXXZ				; SetHooks
;	COMDAT .pdata
.pdata	SEGMENT
$T76824	DD	?SetHooks@@YAXXZ
	DD	040002203H
; Function compile flags: /Ogsu

	.code

?SetHooks@@YAXXZ PROC NEAR				; SetHooks, COMDAT

; Begin code for function: ?SetHooks@@YAXXZ
; Line 254
	mflr         r12
	stw          r12,-8(r1)
	stwu         r1,-60h(r1)
.endprolog
$M76822:
; Line 255
	lis          r11,?bbfCheckHealth@@YAXXZ
	lis          r3,-32140		; 8274h
	li           r5,16		; 10h
	addi         r4,r11,?bbfCheckHealth@@YAXXZ
	ori          r3,r3,64812		; 0FD2Ch
	bl           ?Caveme@@YAXKPAXE@Z
; Line 256
	lis          r11,?bbfCheckWeight@@YAXXZ
	lis          r3,-32136		; 8278h
	li           r5,16		; 10h
	addi         r4,r11,?bbfCheckWeight@@YAXXZ
	ori          r3,r3,17832		; 45A8h
	bl           ?Caveme@@YAXKPAXE@Z
; Line 257
	lis          r11,?bbfCheckItem@@YAXXZ
	lis          r3,-32136		; 8278h
	li           r5,16		; 10h
	addi         r4,r11,?bbfCheckItem@@YAXXZ
	ori          r3,r3,23300		; 5B04h
	bl           ?Caveme@@YAXKPAXE@Z
; Line 258
	lis          r11,?bbfCheckXP@@YAXXZ
	lis          r3,-32139		; 8275h
	li           r5,16		; 10h
	addi         r4,r11,?bbfCheckXP@@YAXXZ
	ori          r3,r3,3260		; 0CBCh
	bl           ?Caveme@@YAXKPAXE@Z
; Line 259
	lis          r10,?HooksSet@@3_NA
	li           r11,1
	stb          r11,?HooksSet@@3_NA(r10)
; Line 260
	addi         r1,r1,96		; 60h
	lwz          r12,-8(r1)
	mtlr         r12
	blr
$M76823:
; End code for function: ?SetHooks@@YAXXZ
?SetHooks@@YAXXZ ENDP
							; SetHooks
PUBLIC	??_C@_1OM@HOKJJFDO@B?$AAo?$AAu?$AAn?$AAd?$AA?5?$AAb?$AAy?$AA?5?$AAF?$AAl?$AAa?$AAm?$AAe?$AA?5?$AA?$CL?$AA?5?$AA7?$AA?$AN?$AA?6?$AA?$HO?$AA?$HO?$AA?$HO?$AA?$HO?$AA?$HO?$AA?$HO?$AA?$HO?$AA?$HO?$AA?$HO?$AA?$HO?$AA?$HO?$AA?$HO?$AA@ ; `string'
PUBLIC	?Trainer464507DD@@YAXXZ				; Trainer464507DD
;	COMDAT .pdata
.pdata	SEGMENT
$T76830	DD	?Trainer464507DD@@YAXXZ
	DD	040001e03H
;	COMDAT ??_C@_1OM@HOKJJFDO@B?$AAo?$AAu?$AAn?$AAd?$AA?5?$AAb?$AAy?$AA?5?$AAF?$AAl?$AAa?$AAm?$AAe?$AA?5?$AA?$CL?$AA?5?$AA7?$AA?$AN?$AA?6?$AA?$HO?$AA?$HO?$AA?$HO?$AA?$HO?$AA?$HO?$AA?$HO?$AA?$HO?$AA?$HO?$AA?$HO?$AA?$HO?$AA?$HO?$AA?$HO?$AA@
.rdata	SEGMENT
??_C@_1OM@HOKJJFDO@B?$AAo?$AAu?$AAn?$AAd?$AA?5?$AAb?$AAy?$AA?5?$AAF?$AAl?$AAa?$AAm?$AAe?$AA?5?$AA?$CL?$AA?5?$AA7?$AA?$AN?$AA?6?$AA?$HO?$AA?$HO?$AA?$HO?$AA?$HO?$AA?$HO?$AA?$HO?$AA?$HO?$AA?$HO?$AA?$HO?$AA?$HO?$AA?$HO?$AA?$HO?$AA@ DB 00H
	DB	'B', 00H, 'o', 00H, 'u', 00H, 'n', 00H, 'd', 00H, ' ', 00H, 'b'
	DB	00H, 'y', 00H, ' ', 00H, 'F', 00H, 'l', 00H, 'a', 00H, 'm', 00H
	DB	'e', 00H, ' ', 00H, '+', 00H, ' ', 00H, '7', 00H, 0dH, 00H, 0aH
	DB	00H, '~', 00H, '~', 00H, '~', 00H, '~', 00H, '~', 00H, '~', 00H
	DB	'~', 00H, '~', 00H, '~', 00H, '~', 00H, '~', 00H, '~', 00H, '~'
	DB	00H, '~', 00H, '~', 00H, '~', 00H, '~', 00H, '~', 00H, '~', 00H
	DB	'~', 00H, '~', 00H, '~', 00H, '~', 00H, '~', 00H, '~', 00H, 0dH
	DB	00H, 0aH, 00H, 'V', 00H, 'i', 00H, 'e', 00H, 'w', 00H, ' ', 00H
	DB	'A', 00H, 'v', 00H, 'a', 00H, 'i', 00H, 'l', 00H, 'a', 00H, 'b'
	DB	00H, 'l', 00H, 'e', 00H, ' ', 00H, 'C', 00H, 'o', 00H, 'd', 00H
	DB	'e', 00H, 's', 00H, ':', 00H, ' ', 00H, 'D', 00H, 'P', 00H, 'A'
	DB	00H, 'D', 00H, '-', 00H, 'D', 00H, 'O', 00H, 'W', 00H, 'N', 00H
	DB	'(', 00H, 'x', 00H, '4', 00H, ')', 00H, 0dH, 00H, 0aH, 00H, 'A'
	DB	00H, 'c', 00H, 't', 00H, 'i', 00H, 'v', 00H, 'a', 00H, 't', 00H
	DB	'e', 00H, ' ', 00H, 'A', 00H, 'l', 00H, 'l', 00H, ' ', 00H, 'C'
	DB	00H, 'o', 00H, 'd', 00H, 'e', 00H, 's', 00H, ':', 00H, ' ', 00H
	DB	'D', 00H, 'P', 00H, 'A', 00H, 'D', 00H, '-', 00H, 'U', 00H, 'P'
	DB	00H, '(', 00H, 'x', 00H, '4', 00H, ')', 00H, 0dH, 00H, 0aH, 00H
	DB	00H						; `string'
; Function compile flags: /Ogsu

	.code

?Trainer464507DD@@YAXXZ	PROC NEAR			; Trainer464507DD, COMDAT

; Begin code for function: ?Trainer464507DD@@YAXXZ
; Line 263
	mflr         r12
	stw          r12,-8(r1)
	stwu         r1,-60h(r1)
.endprolog
$M76828:
; Line 264
	lis          r9,?g_strButtons@@3PAPB_WA
	lis          r8,??_C@_1OM@HOKJJFDO@B?$AAo?$AAu?$AAn?$AAd?$AA?5?$AAb?$AAy?$AA?5?$AAF?$AAl?$AAa?$AAm?$AAe?$AA?5?$AA?$CL?$AA?5?$AA7?$AA?$AN?$AA?6?$AA?$HO?$AA?$HO?$AA?$HO?$AA?$HO?$AA?$HO?$AA?$HO?$AA?$HO?$AA?$HO?$AA?$HO?$AA?$HO?$AA?$HO?$AA?$HO?$AA@
	lis          r6,??_C@_1DC@JKLNPENH@h?$AAt?$AAt?$AAp?$AAs?$AA?3?$AA?1?$AA?1?$AAw?$AAw?$AAw?$AA?4?$AAt?$AA3?$AAf?$AAu?$AAr?$AAy?$AA?4?$AAc?$AAo?$AA?4?$AAu?$AAk?$AA?$AA?$AA@
	lis          r11,?g_xol@@3U_XOVERLAPPED@@A
	lis          r10,?g_mb_result@@3U_MESSAGEBOX_RESULT@@A
	addi         r11,r11,?g_xol@@3U_XOVERLAPPED@@A
	addi         r7,r9,?g_strButtons@@3PAPB_WA
	addi         r5,r8,??_C@_1OM@HOKJJFDO@B?$AAo?$AAu?$AAn?$AAd?$AA?5?$AAb?$AAy?$AA?5?$AAF?$AAl?$AAa?$AAm?$AAe?$AA?5?$AA?$CL?$AA?5?$AA7?$AA?$AN?$AA?6?$AA?$HO?$AA?$HO?$AA?$HO?$AA?$HO?$AA?$HO?$AA?$HO?$AA?$HO?$AA?$HO?$AA?$HO?$AA?$HO?$AA?$HO?$AA?$HO?$AA@
	stw          r11,54h(r1)
	addi         r4,r6,??_C@_1DC@JKLNPENH@h?$AAt?$AAt?$AAp?$AAs?$AA?3?$AA?1?$AA?1?$AAw?$AAw?$AAw?$AA?4?$AAt?$AA3?$AAf?$AAu?$AAr?$AAy?$AA?4?$AAc?$AAo?$AA?4?$AAu?$AAk?$AA?$AA?$AA@
	addi         r10,r10,?g_mb_result@@3U_MESSAGEBOX_RESULT@@A
	lis          r9,1
	li           r8,0
	li           r6,1
	li           r3,0
	bl           XShowMessageBoxUI
; Line 265
	lis          r11,?HooksSet@@3_NA
	lis          r10,?Prompt@@3KA
	lbz          r11,?HooksSet@@3_NA(r11)
	stw          r3,?Prompt@@3KA(r10)
	cmplwi       r11,0
	bne          $LN1@Trainer464
; Line 267
	bl           ?SetHooks@@YAXXZ
$LN1@Trainer464:
; Line 269
	addi         r1,r1,96		; 60h
	lwz          r12,-8(r1)
	mtlr         r12
	blr
$M76829:
; End code for function: ?Trainer464507DD@@YAXXZ
?Trainer464507DD@@YAXXZ ENDP
							; Trainer464507DD
PUBLIC	?CODCCheckHealth@@YAXXZ				; CODCCheckHealth
; Function compile flags: /Odsu

	.code
PPTR$ = -32						; size = 4
EPtr$ = -28						; size = 4

?CODCCheckHealth@@YAXXZ	PROC NEAR			; CODCCheckHealth, COMDAT

; Begin code for function: ?CODCCheckHealth@@YAXXZ
; File c:\users\t3fur\desktop\viper engine 1.4\trainer\codclassic.h
; Line 13
	lwz          r11,1DCh(r31)
; Line 14
	mr           r3,r25
; Line 15
	subf         r11,r28,r11
; Line 16
	stw          r11,1DCh(r31)
; Line 21
	stw          r3,PPTR$(r1)		; 4294967264 (0FFFFFFE0h)
; Line 22
	stw          r31,EPtr$(r1)		; 4294967268 (0FFFFFFE4h)
; Line 25
	lwz          r11,EPtr$(r1)		; 4294967268 (0FFFFFFE4h)
	lis          r10,-30956		; 8714h
	ori          r10,r10,31744		; 7C00h
	cmplw        cr6,r11,r10
	bne          cr6,$LN3@CODCCheckH
	lis          r11,?InfHealth@@3_NA
	lbz          r11,?InfHealth@@3_NA(r11)
	cmpwi        cr6,r11,1
	bne          cr6,$LN3@CODCCheckH
; Line 27
	lwz          r11,EPtr$(r1)		; 4294967268 (0FFFFFFE4h)
	li           r10,1200		; 4B0h
	stw          r10,1DCh(r11)
	b            $LN1@CODCCheckH
$LN3@CODCCheckH:
; Line 29
	lwz          r11,PPTR$(r1)		; 4294967264 (0FFFFFFE0h)
	lis          r10,-30956		; 8714h
	ori          r10,r10,31744		; 7C00h
	cmplw        cr6,r11,r10
	bne          cr6,$LN1@CODCCheckH
	lis          r11,?OneHitKo@@3_NA
	lbz          r11,?OneHitKo@@3_NA(r11)
	cmpwi        cr6,r11,1
	bne          cr6,$LN1@CODCCheckH
; Line 31
	lwz          r11,EPtr$(r1)		; 4294967268 (0FFFFFFE4h)
	li           r10,0
	stw          r10,1DCh(r11)
$LN1@CODCCheckH:
; Line 36
	blr
; End code for function: ?CODCCheckHealth@@YAXXZ
?CODCCheckHealth@@YAXXZ ENDP
							; CODCCheckHealth
PUBLIC	??_C@_1OG@KEOAKJEB@C?$AAo?$AAd?$AA?5?$AAC?$AAl?$AAa?$AAs?$AAs?$AAi?$AAc?$AA?5?$AA?$CL?$AA?5?$AA3?$AA?$AN?$AA?6?$AA?$HO?$AA?$HO?$AA?$HO?$AA?$HO?$AA?$HO?$AA?$HO?$AA?$HO?$AA?$HO?$AA?$HO?$AA?$HO?$AA?$HO?$AA?$HO?$AA?$HO?$AA?$HO?$AA?$HO?$AA@ ; `string'
PUBLIC	?Trainer58410957@@YAXXZ				; Trainer58410957
;	COMDAT .pdata
.pdata	SEGMENT
$T76838	DD	?Trainer58410957@@YAXXZ
	DD	040002003H
;	COMDAT ??_C@_1OG@KEOAKJEB@C?$AAo?$AAd?$AA?5?$AAC?$AAl?$AAa?$AAs?$AAs?$AAi?$AAc?$AA?5?$AA?$CL?$AA?5?$AA3?$AA?$AN?$AA?6?$AA?$HO?$AA?$HO?$AA?$HO?$AA?$HO?$AA?$HO?$AA?$HO?$AA?$HO?$AA?$HO?$AA?$HO?$AA?$HO?$AA?$HO?$AA?$HO?$AA?$HO?$AA?$HO?$AA?$HO?$AA@
.rdata	SEGMENT
??_C@_1OG@KEOAKJEB@C?$AAo?$AAd?$AA?5?$AAC?$AAl?$AAa?$AAs?$AAs?$AAi?$AAc?$AA?5?$AA?$CL?$AA?5?$AA3?$AA?$AN?$AA?6?$AA?$HO?$AA?$HO?$AA?$HO?$AA?$HO?$AA?$HO?$AA?$HO?$AA?$HO?$AA?$HO?$AA?$HO?$AA?$HO?$AA?$HO?$AA?$HO?$AA?$HO?$AA?$HO?$AA?$HO?$AA@ DB 00H
	DB	'C', 00H, 'o', 00H, 'd', 00H, ' ', 00H, 'C', 00H, 'l', 00H, 'a'
	DB	00H, 's', 00H, 's', 00H, 'i', 00H, 'c', 00H, ' ', 00H, '+', 00H
	DB	' ', 00H, '3', 00H, 0dH, 00H, 0aH, 00H, '~', 00H, '~', 00H, '~'
	DB	00H, '~', 00H, '~', 00H, '~', 00H, '~', 00H, '~', 00H, '~', 00H
	DB	'~', 00H, '~', 00H, '~', 00H, '~', 00H, '~', 00H, '~', 00H, '~'
	DB	00H, '~', 00H, '~', 00H, '~', 00H, '~', 00H, '~', 00H, '~', 00H
	DB	'~', 00H, '~', 00H, '~', 00H, 0dH, 00H, 0aH, 00H, 'V', 00H, 'i'
	DB	00H, 'e', 00H, 'w', 00H, ' ', 00H, 'A', 00H, 'v', 00H, 'a', 00H
	DB	'i', 00H, 'l', 00H, 'a', 00H, 'b', 00H, 'l', 00H, 'e', 00H, ' '
	DB	00H, 'C', 00H, 'o', 00H, 'd', 00H, 'e', 00H, 's', 00H, ':', 00H
	DB	' ', 00H, 'D', 00H, 'P', 00H, 'A', 00H, 'D', 00H, '-', 00H, 'D'
	DB	00H, 'O', 00H, 'W', 00H, 'N', 00H, '(', 00H, 'x', 00H, '4', 00H
	DB	')', 00H, 0dH, 00H, 0aH, 00H, 'A', 00H, 'c', 00H, 't', 00H, 'i'
	DB	00H, 'v', 00H, 'a', 00H, 't', 00H, 'e', 00H, ' ', 00H, 'A', 00H
	DB	'l', 00H, 'l', 00H, ' ', 00H, 'C', 00H, 'o', 00H, 'd', 00H, 'e'
	DB	00H, 's', 00H, ':', 00H, ' ', 00H, 'D', 00H, 'P', 00H, 'A', 00H
	DB	'D', 00H, '-', 00H, 'U', 00H, 'P', 00H, '(', 00H, 'x', 00H, '4'
	DB	00H, ')', 00H, 0dH, 00H, 0aH, 00H, 00H	; `string'
; Function compile flags: /Ogsu

	.code

?Trainer58410957@@YAXXZ	PROC NEAR			; Trainer58410957, COMDAT

; Begin code for function: ?Trainer58410957@@YAXXZ
; Line 42
	mflr         r12
	stw          r12,-8(r1)
	stwu         r1,-60h(r1)
.endprolog
$M76836:
; Line 43
	lis          r9,?g_strButtons@@3PAPB_WA
	lis          r8,??_C@_1OG@KEOAKJEB@C?$AAo?$AAd?$AA?5?$AAC?$AAl?$AAa?$AAs?$AAs?$AAi?$AAc?$AA?5?$AA?$CL?$AA?5?$AA3?$AA?$AN?$AA?6?$AA?$HO?$AA?$HO?$AA?$HO?$AA?$HO?$AA?$HO?$AA?$HO?$AA?$HO?$AA?$HO?$AA?$HO?$AA?$HO?$AA?$HO?$AA?$HO?$AA?$HO?$AA?$HO?$AA?$HO?$AA@
	lis          r6,??_C@_1DC@JKLNPENH@h?$AAt?$AAt?$AAp?$AAs?$AA?3?$AA?1?$AA?1?$AAw?$AAw?$AAw?$AA?4?$AAt?$AA3?$AAf?$AAu?$AAr?$AAy?$AA?4?$AAc?$AAo?$AA?4?$AAu?$AAk?$AA?$AA?$AA@
	lis          r11,?g_xol@@3U_XOVERLAPPED@@A
	lis          r10,?g_mb_result@@3U_MESSAGEBOX_RESULT@@A
	addi         r11,r11,?g_xol@@3U_XOVERLAPPED@@A
	addi         r7,r9,?g_strButtons@@3PAPB_WA
